ARM GAS  C:\Users\andywei\AppData\Local\Temp\cc7mkTcv.s 			page 1


   1              		.cpu cortex-m4
   2              		.eabi_attribute 27, 1
   3              		.eabi_attribute 28, 1
   4              		.eabi_attribute 20, 1
   5              		.eabi_attribute 21, 1
   6              		.eabi_attribute 23, 3
   7              		.eabi_attribute 24, 1
   8              		.eabi_attribute 25, 1
   9              		.eabi_attribute 26, 1
  10              		.eabi_attribute 30, 1
  11              		.eabi_attribute 34, 1
  12              		.eabi_attribute 18, 4
  13              		.file	"si446x_api_lib.c"
  14              		.text
  15              	.Ltext0:
  16              		.cfi_sections	.debug_frame
  17              		.section	.text.si446x_reset,"ax",%progbits
  18              		.align	1
  19              		.global	si446x_reset
  20              		.arch armv7e-m
  21              		.syntax unified
  22              		.thumb
  23              		.thumb_func
  24              		.fpu fpv4-sp-d16
  26              	si446x_reset:
  27              	.LFB135:
  28              		.file 1 "Drivers/radio/Si446x/si446x_api_lib.c"
   1:Drivers/radio/Si446x/si446x_api_lib.c **** /*!
   2:Drivers/radio/Si446x/si446x_api_lib.c ****  * File:
   3:Drivers/radio/Si446x/si446x_api_lib.c ****  *  si446x_api_lib.c
   4:Drivers/radio/Si446x/si446x_api_lib.c ****  *
   5:Drivers/radio/Si446x/si446x_api_lib.c ****  * Description:
   6:Drivers/radio/Si446x/si446x_api_lib.c ****  *  This file contains the Si446x API library.
   7:Drivers/radio/Si446x/si446x_api_lib.c ****  *
   8:Drivers/radio/Si446x/si446x_api_lib.c ****  * Silicon Laboratories Confidential
   9:Drivers/radio/Si446x/si446x_api_lib.c ****  * Copyright 2011 Silicon Laboratories, Inc.
  10:Drivers/radio/Si446x/si446x_api_lib.c ****  */
  11:Drivers/radio/Si446x/si446x_api_lib.c **** 
  12:Drivers/radio/Si446x/si446x_api_lib.c **** #include "bsp.h"
  13:Drivers/radio/Si446x/si446x_api_lib.c **** #include <stdarg.h>
  14:Drivers/radio/Si446x/si446x_api_lib.c **** #include <string.h>
  15:Drivers/radio/Si446x/si446x_api_lib.c **** #include <memory.h>
  16:Drivers/radio/Si446x/si446x_api_lib.c **** 
  17:Drivers/radio/Si446x/si446x_api_lib.c **** SEGMENT_VARIABLE( Si446xCmd, union si446x_cmd_reply_union, SEG_XDATA );
  18:Drivers/radio/Si446x/si446x_api_lib.c **** SEGMENT_VARIABLE( Pro2Cmd[16], U8, SEG_XDATA );
  19:Drivers/radio/Si446x/si446x_api_lib.c **** 
  20:Drivers/radio/Si446x/si446x_api_lib.c **** #ifdef SI446X_PATCH_CMDS
  21:Drivers/radio/Si446x/si446x_api_lib.c **** SEGMENT_VARIABLE( Si446xPatchCommands[][8] = { SI446X_PATCH_CMDS }, U8, SEG_CODE);
  22:Drivers/radio/Si446x/si446x_api_lib.c **** #endif
  23:Drivers/radio/Si446x/si446x_api_lib.c **** 
  24:Drivers/radio/Si446x/si446x_api_lib.c **** 
  25:Drivers/radio/Si446x/si446x_api_lib.c **** /*!
  26:Drivers/radio/Si446x/si446x_api_lib.c ****  * This functions is used to reset the si446x radio by applying shutdown and
  27:Drivers/radio/Si446x/si446x_api_lib.c ****  * releasing it.  After this function @ref si446x_boot should be called.  You
  28:Drivers/radio/Si446x/si446x_api_lib.c ****  * can check if POR has completed by waiting 4 ms or by polling GPIO 0, 2, or 3.
  29:Drivers/radio/Si446x/si446x_api_lib.c ****  * When these GPIOs are high, it is safe to call @ref si446x_boot.
  30:Drivers/radio/Si446x/si446x_api_lib.c ****  */
ARM GAS  C:\Users\andywei\AppData\Local\Temp\cc7mkTcv.s 			page 2


  31:Drivers/radio/Si446x/si446x_api_lib.c **** void si446x_reset(void)
  32:Drivers/radio/Si446x/si446x_api_lib.c **** {
  29              		.loc 1 32 1 view -0
  30              		.cfi_startproc
  31              		@ args = 0, pretend = 0, frame = 0
  32              		@ frame_needed = 0, uses_anonymous_args = 0
  33 0000 08B5     		push	{r3, lr}
  34              	.LCFI0:
  35              		.cfi_def_cfa_offset 8
  36              		.cfi_offset 3, -8
  37              		.cfi_offset 14, -4
  33:Drivers/radio/Si446x/si446x_api_lib.c ****     U8 loopCount;
  38              		.loc 1 33 5 view .LVU1
  34:Drivers/radio/Si446x/si446x_api_lib.c **** 
  35:Drivers/radio/Si446x/si446x_api_lib.c ****     /* Put radio in shutdown, wait then release */
  36:Drivers/radio/Si446x/si446x_api_lib.c ****     radio_hal_AssertShutdown();
  39              		.loc 1 36 5 view .LVU2
  40 0002 FFF7FEFF 		bl	radio_hal_AssertShutdown
  41              	.LVL0:
  37:Drivers/radio/Si446x/si446x_api_lib.c ****     //! @todo this needs to be a better delay function.
  38:Drivers/radio/Si446x/si446x_api_lib.c ****     for (loopCount = 255; loopCount != 0; loopCount--);
  42              		.loc 1 38 5 view .LVU3
  43              		.loc 1 38 20 is_stmt 0 view .LVU4
  44 0006 FF23     		movs	r3, #255
  45              		.loc 1 38 5 view .LVU5
  46 0008 01E0     		b	.L2
  47              	.LVL1:
  48              	.L3:
  49              		.loc 1 38 55 is_stmt 1 discriminator 3 view .LVU6
  50              		.loc 1 38 43 discriminator 3 view .LVU7
  51              		.loc 1 38 52 is_stmt 0 discriminator 3 view .LVU8
  52 000a 013B     		subs	r3, r3, #1
  53              	.LVL2:
  54              		.loc 1 38 52 discriminator 3 view .LVU9
  55 000c DBB2     		uxtb	r3, r3
  56              	.LVL3:
  57              	.L2:
  58              		.loc 1 38 27 is_stmt 1 discriminator 1 view .LVU10
  59              		.loc 1 38 5 is_stmt 0 discriminator 1 view .LVU11
  60 000e 002B     		cmp	r3, #0
  61 0010 FBD1     		bne	.L3
  39:Drivers/radio/Si446x/si446x_api_lib.c ****     radio_hal_DeassertShutdown();
  62              		.loc 1 39 5 is_stmt 1 view .LVU12
  63 0012 FFF7FEFF 		bl	radio_hal_DeassertShutdown
  64              	.LVL4:
  40:Drivers/radio/Si446x/si446x_api_lib.c ****     for (loopCount = 255; loopCount != 0; loopCount--);
  65              		.loc 1 40 5 view .LVU13
  66              		.loc 1 40 20 is_stmt 0 view .LVU14
  67 0016 FF23     		movs	r3, #255
  68              		.loc 1 40 5 view .LVU15
  69 0018 01E0     		b	.L4
  70              	.LVL5:
  71              	.L5:
  72              		.loc 1 40 55 is_stmt 1 discriminator 3 view .LVU16
  73              		.loc 1 40 43 discriminator 3 view .LVU17
  74              		.loc 1 40 52 is_stmt 0 discriminator 3 view .LVU18
  75 001a 013B     		subs	r3, r3, #1
ARM GAS  C:\Users\andywei\AppData\Local\Temp\cc7mkTcv.s 			page 3


  76              	.LVL6:
  77              		.loc 1 40 52 discriminator 3 view .LVU19
  78 001c DBB2     		uxtb	r3, r3
  79              	.LVL7:
  80              	.L4:
  81              		.loc 1 40 27 is_stmt 1 discriminator 1 view .LVU20
  82              		.loc 1 40 5 is_stmt 0 discriminator 1 view .LVU21
  83 001e 002B     		cmp	r3, #0
  84 0020 FBD1     		bne	.L5
  41:Drivers/radio/Si446x/si446x_api_lib.c ****     radio_comm_ClearCTS();
  85              		.loc 1 41 5 is_stmt 1 view .LVU22
  86 0022 FFF7FEFF 		bl	radio_comm_ClearCTS
  87              	.LVL8:
  42:Drivers/radio/Si446x/si446x_api_lib.c **** }
  88              		.loc 1 42 1 is_stmt 0 view .LVU23
  89 0026 08BD     		pop	{r3, pc}
  90              		.cfi_endproc
  91              	.LFE135:
  93              		.section	.text.si446x_power_up,"ax",%progbits
  94              		.align	1
  95              		.global	si446x_power_up
  96              		.syntax unified
  97              		.thumb
  98              		.thumb_func
  99              		.fpu fpv4-sp-d16
 101              	si446x_power_up:
 102              	.LVL9:
 103              	.LFB136:
  43:Drivers/radio/Si446x/si446x_api_lib.c **** 
  44:Drivers/radio/Si446x/si446x_api_lib.c **** /*!
  45:Drivers/radio/Si446x/si446x_api_lib.c ****  * This function is used to initialize after power-up the radio chip.
  46:Drivers/radio/Si446x/si446x_api_lib.c ****  * Before this function @si446x_reset should be called.
  47:Drivers/radio/Si446x/si446x_api_lib.c ****  */
  48:Drivers/radio/Si446x/si446x_api_lib.c **** void si446x_power_up(U8 BOOT_OPTIONS, U8 XTAL_OPTIONS, U32 XO_FREQ)
  49:Drivers/radio/Si446x/si446x_api_lib.c **** {
 104              		.loc 1 49 1 is_stmt 1 view -0
 105              		.cfi_startproc
 106              		@ args = 0, pretend = 0, frame = 0
 107              		@ frame_needed = 0, uses_anonymous_args = 0
 108              		.loc 1 49 1 is_stmt 0 view .LVU25
 109 0000 08B5     		push	{r3, lr}
 110              	.LCFI1:
 111              		.cfi_def_cfa_offset 8
 112              		.cfi_offset 3, -8
 113              		.cfi_offset 14, -4
  50:Drivers/radio/Si446x/si446x_api_lib.c ****     Pro2Cmd[0] = SI446X_CMD_ID_POWER_UP;
 114              		.loc 1 50 5 is_stmt 1 view .LVU26
 115              		.loc 1 50 16 is_stmt 0 view .LVU27
 116 0002 0A4B     		ldr	r3, .L9
 117 0004 4FF0020C 		mov	ip, #2
 118 0008 83F800C0 		strb	ip, [r3]
  51:Drivers/radio/Si446x/si446x_api_lib.c ****     Pro2Cmd[1] = BOOT_OPTIONS;
 119              		.loc 1 51 5 is_stmt 1 view .LVU28
 120              		.loc 1 51 16 is_stmt 0 view .LVU29
 121 000c 5870     		strb	r0, [r3, #1]
  52:Drivers/radio/Si446x/si446x_api_lib.c ****     Pro2Cmd[2] = XTAL_OPTIONS;
 122              		.loc 1 52 5 is_stmt 1 view .LVU30
ARM GAS  C:\Users\andywei\AppData\Local\Temp\cc7mkTcv.s 			page 4


 123              		.loc 1 52 16 is_stmt 0 view .LVU31
 124 000e 9970     		strb	r1, [r3, #2]
  53:Drivers/radio/Si446x/si446x_api_lib.c ****     Pro2Cmd[3] = (U8)(XO_FREQ >> 24);
 125              		.loc 1 53 5 is_stmt 1 view .LVU32
 126              		.loc 1 53 18 is_stmt 0 view .LVU33
 127 0010 110E     		lsrs	r1, r2, #24
 128              	.LVL10:
 129              		.loc 1 53 16 view .LVU34
 130 0012 D970     		strb	r1, [r3, #3]
  54:Drivers/radio/Si446x/si446x_api_lib.c ****     Pro2Cmd[4] = (U8)(XO_FREQ >> 16);
 131              		.loc 1 54 5 is_stmt 1 view .LVU35
 132              		.loc 1 54 18 is_stmt 0 view .LVU36
 133 0014 C2F30741 		ubfx	r1, r2, #16, #8
 134              		.loc 1 54 16 view .LVU37
 135 0018 1971     		strb	r1, [r3, #4]
  55:Drivers/radio/Si446x/si446x_api_lib.c ****     Pro2Cmd[5] = (U8)(XO_FREQ >> 8);
 136              		.loc 1 55 5 is_stmt 1 view .LVU38
 137              		.loc 1 55 18 is_stmt 0 view .LVU39
 138 001a C2F30721 		ubfx	r1, r2, #8, #8
 139              		.loc 1 55 16 view .LVU40
 140 001e 5971     		strb	r1, [r3, #5]
  56:Drivers/radio/Si446x/si446x_api_lib.c ****     Pro2Cmd[6] = (U8)(XO_FREQ);
 141              		.loc 1 56 5 is_stmt 1 view .LVU41
 142              		.loc 1 56 16 is_stmt 0 view .LVU42
 143 0020 9A71     		strb	r2, [r3, #6]
  57:Drivers/radio/Si446x/si446x_api_lib.c **** 
  58:Drivers/radio/Si446x/si446x_api_lib.c ****     radio_comm_SendCmd( SI446X_CMD_ARG_COUNT_POWER_UP, Pro2Cmd );
 144              		.loc 1 58 5 is_stmt 1 view .LVU43
 145 0022 1946     		mov	r1, r3
 146 0024 0720     		movs	r0, #7
 147              	.LVL11:
 148              		.loc 1 58 5 is_stmt 0 view .LVU44
 149 0026 FFF7FEFF 		bl	radio_comm_SendCmd
 150              	.LVL12:
  59:Drivers/radio/Si446x/si446x_api_lib.c **** }
 151              		.loc 1 59 1 view .LVU45
 152 002a 08BD     		pop	{r3, pc}
 153              	.L10:
 154              		.align	2
 155              	.L9:
 156 002c 00000000 		.word	.LANCHOR0
 157              		.cfi_endproc
 158              	.LFE136:
 160              		.section	.text.si446x_part_info,"ax",%progbits
 161              		.align	1
 162              		.global	si446x_part_info
 163              		.syntax unified
 164              		.thumb
 165              		.thumb_func
 166              		.fpu fpv4-sp-d16
 168              	si446x_part_info:
 169              	.LFB138:
  60:Drivers/radio/Si446x/si446x_api_lib.c **** 
  61:Drivers/radio/Si446x/si446x_api_lib.c **** /*!
  62:Drivers/radio/Si446x/si446x_api_lib.c ****  * This function is used to load all properties and commands with a list of NULL terminated command
  63:Drivers/radio/Si446x/si446x_api_lib.c ****  * Before this function @si446x_reset should be called.
  64:Drivers/radio/Si446x/si446x_api_lib.c ****  */
ARM GAS  C:\Users\andywei\AppData\Local\Temp\cc7mkTcv.s 			page 5


  65:Drivers/radio/Si446x/si446x_api_lib.c **** U8 si446x_configuration_init(const U8* pSetPropCmd)
  66:Drivers/radio/Si446x/si446x_api_lib.c **** {
  67:Drivers/radio/Si446x/si446x_api_lib.c ****   SEGMENT_VARIABLE(col, U8, SEG_DATA);
  68:Drivers/radio/Si446x/si446x_api_lib.c ****   SEGMENT_VARIABLE(numOfBytes, U8, SEG_DATA);
  69:Drivers/radio/Si446x/si446x_api_lib.c **** 
  70:Drivers/radio/Si446x/si446x_api_lib.c ****   /* While cycle as far as the pointer points to a command */
  71:Drivers/radio/Si446x/si446x_api_lib.c ****   while (*pSetPropCmd != 0x00)
  72:Drivers/radio/Si446x/si446x_api_lib.c ****   {
  73:Drivers/radio/Si446x/si446x_api_lib.c ****     /* Commands structure in the array:
  74:Drivers/radio/Si446x/si446x_api_lib.c ****      * --------------------------------
  75:Drivers/radio/Si446x/si446x_api_lib.c ****      * LEN | <LEN length of data>
  76:Drivers/radio/Si446x/si446x_api_lib.c ****      */
  77:Drivers/radio/Si446x/si446x_api_lib.c **** 
  78:Drivers/radio/Si446x/si446x_api_lib.c ****     numOfBytes = *pSetPropCmd++;
  79:Drivers/radio/Si446x/si446x_api_lib.c **** 
  80:Drivers/radio/Si446x/si446x_api_lib.c ****     if (numOfBytes > 16u)
  81:Drivers/radio/Si446x/si446x_api_lib.c ****     {
  82:Drivers/radio/Si446x/si446x_api_lib.c ****       /* Number of command bytes exceeds maximal allowable length */
  83:Drivers/radio/Si446x/si446x_api_lib.c ****       return SI446X_COMMAND_ERROR;
  84:Drivers/radio/Si446x/si446x_api_lib.c ****     }
  85:Drivers/radio/Si446x/si446x_api_lib.c **** 
  86:Drivers/radio/Si446x/si446x_api_lib.c ****     for (col = 0u; col < numOfBytes; col++)
  87:Drivers/radio/Si446x/si446x_api_lib.c ****     {
  88:Drivers/radio/Si446x/si446x_api_lib.c ****       Pro2Cmd[col] = *pSetPropCmd;
  89:Drivers/radio/Si446x/si446x_api_lib.c ****       pSetPropCmd++;
  90:Drivers/radio/Si446x/si446x_api_lib.c ****     }
  91:Drivers/radio/Si446x/si446x_api_lib.c **** 
  92:Drivers/radio/Si446x/si446x_api_lib.c ****     if (radio_comm_SendCmdGetResp(numOfBytes, Pro2Cmd, 0, 0) != 0xFF)
  93:Drivers/radio/Si446x/si446x_api_lib.c ****     {
  94:Drivers/radio/Si446x/si446x_api_lib.c ****       /* Timeout occured */
  95:Drivers/radio/Si446x/si446x_api_lib.c ****       return SI446X_CTS_TIMEOUT;
  96:Drivers/radio/Si446x/si446x_api_lib.c ****     }
  97:Drivers/radio/Si446x/si446x_api_lib.c **** 
  98:Drivers/radio/Si446x/si446x_api_lib.c ****     if (radio_hal_NirqLevel() == 0)
  99:Drivers/radio/Si446x/si446x_api_lib.c ****     {
 100:Drivers/radio/Si446x/si446x_api_lib.c ****       /* Get and clear all interrupts.  An error has occured... */
 101:Drivers/radio/Si446x/si446x_api_lib.c ****       si446x_get_int_status(0, 0, 0);
 102:Drivers/radio/Si446x/si446x_api_lib.c ****       if (Si446xCmd.GET_INT_STATUS.CHIP_PEND & SI446X_CMD_GET_CHIP_STATUS_REP_CHIP_PEND_CMD_ERROR_P
 103:Drivers/radio/Si446x/si446x_api_lib.c ****       {
 104:Drivers/radio/Si446x/si446x_api_lib.c ****         return SI446X_COMMAND_ERROR;
 105:Drivers/radio/Si446x/si446x_api_lib.c ****       }
 106:Drivers/radio/Si446x/si446x_api_lib.c ****     }
 107:Drivers/radio/Si446x/si446x_api_lib.c ****   }
 108:Drivers/radio/Si446x/si446x_api_lib.c **** 
 109:Drivers/radio/Si446x/si446x_api_lib.c ****   return SI446X_SUCCESS;
 110:Drivers/radio/Si446x/si446x_api_lib.c **** }
 111:Drivers/radio/Si446x/si446x_api_lib.c **** 
 112:Drivers/radio/Si446x/si446x_api_lib.c **** /*! This function sends the PART_INFO command to the radio and receives the answer
 113:Drivers/radio/Si446x/si446x_api_lib.c ****  *  into @Si446xCmd union.
 114:Drivers/radio/Si446x/si446x_api_lib.c ****  */
 115:Drivers/radio/Si446x/si446x_api_lib.c **** void si446x_part_info(void)
 116:Drivers/radio/Si446x/si446x_api_lib.c **** {
 170              		.loc 1 116 1 is_stmt 1 view -0
 171              		.cfi_startproc
 172              		@ args = 0, pretend = 0, frame = 0
 173              		@ frame_needed = 0, uses_anonymous_args = 0
 174 0000 10B5     		push	{r4, lr}
ARM GAS  C:\Users\andywei\AppData\Local\Temp\cc7mkTcv.s 			page 6


 175              	.LCFI2:
 176              		.cfi_def_cfa_offset 8
 177              		.cfi_offset 4, -8
 178              		.cfi_offset 14, -4
 117:Drivers/radio/Si446x/si446x_api_lib.c ****     Pro2Cmd[0] = SI446X_CMD_ID_PART_INFO;
 179              		.loc 1 117 5 view .LVU47
 180              		.loc 1 117 16 is_stmt 0 view .LVU48
 181 0002 0F4C     		ldr	r4, .L13
 182 0004 0120     		movs	r0, #1
 183 0006 2070     		strb	r0, [r4]
 118:Drivers/radio/Si446x/si446x_api_lib.c **** 
 119:Drivers/radio/Si446x/si446x_api_lib.c ****     radio_comm_SendCmdGetResp( SI446X_CMD_ARG_COUNT_PART_INFO,
 184              		.loc 1 119 5 is_stmt 1 view .LVU49
 185 0008 2346     		mov	r3, r4
 186 000a 0822     		movs	r2, #8
 187 000c 2146     		mov	r1, r4
 188 000e FFF7FEFF 		bl	radio_comm_SendCmdGetResp
 189              	.LVL13:
 120:Drivers/radio/Si446x/si446x_api_lib.c ****                               Pro2Cmd,
 121:Drivers/radio/Si446x/si446x_api_lib.c ****                               SI446X_CMD_REPLY_COUNT_PART_INFO,
 122:Drivers/radio/Si446x/si446x_api_lib.c ****                               Pro2Cmd );
 123:Drivers/radio/Si446x/si446x_api_lib.c **** 
 124:Drivers/radio/Si446x/si446x_api_lib.c ****     Si446xCmd.PART_INFO.CHIPREV         = Pro2Cmd[0];
 190              		.loc 1 124 5 view .LVU50
 191              		.loc 1 124 50 is_stmt 0 view .LVU51
 192 0012 2278     		ldrb	r2, [r4]	@ zero_extendqisi2
 193              		.loc 1 124 41 view .LVU52
 194 0014 0B4B     		ldr	r3, .L13+4
 195 0016 1A70     		strb	r2, [r3]
 125:Drivers/radio/Si446x/si446x_api_lib.c ****     Si446xCmd.PART_INFO.PART            = ((U16)Pro2Cmd[1] << 8) & 0xFF00;
 196              		.loc 1 125 5 is_stmt 1 view .LVU53
 197              		.loc 1 125 56 is_stmt 0 view .LVU54
 198 0018 6278     		ldrb	r2, [r4, #1]	@ zero_extendqisi2
 199              		.loc 1 125 41 view .LVU55
 200 001a 1202     		lsls	r2, r2, #8
 201 001c 5A80     		strh	r2, [r3, #2]	@ movhi
 126:Drivers/radio/Si446x/si446x_api_lib.c ****     Si446xCmd.PART_INFO.PART           |= (U16)Pro2Cmd[2] & 0x00FF;
 202              		.loc 1 126 5 is_stmt 1 view .LVU56
 203              		.loc 1 126 55 is_stmt 0 view .LVU57
 204 001e A178     		ldrb	r1, [r4, #2]	@ zero_extendqisi2
 205              		.loc 1 126 40 view .LVU58
 206 0020 0A43     		orrs	r2, r2, r1
 207 0022 5A80     		strh	r2, [r3, #2]	@ movhi
 127:Drivers/radio/Si446x/si446x_api_lib.c ****     Si446xCmd.PART_INFO.PBUILD          = Pro2Cmd[3];
 208              		.loc 1 127 5 is_stmt 1 view .LVU59
 209              		.loc 1 127 50 is_stmt 0 view .LVU60
 210 0024 E278     		ldrb	r2, [r4, #3]	@ zero_extendqisi2
 211              		.loc 1 127 41 view .LVU61
 212 0026 1A71     		strb	r2, [r3, #4]
 128:Drivers/radio/Si446x/si446x_api_lib.c ****     Si446xCmd.PART_INFO.ID              = ((U16)Pro2Cmd[4] << 8) & 0xFF00;
 213              		.loc 1 128 5 is_stmt 1 view .LVU62
 214              		.loc 1 128 56 is_stmt 0 view .LVU63
 215 0028 2279     		ldrb	r2, [r4, #4]	@ zero_extendqisi2
 216              		.loc 1 128 41 view .LVU64
 217 002a 1202     		lsls	r2, r2, #8
 218 002c DA80     		strh	r2, [r3, #6]	@ movhi
 129:Drivers/radio/Si446x/si446x_api_lib.c ****     Si446xCmd.PART_INFO.ID             |= (U16)Pro2Cmd[5] & 0x00FF;
ARM GAS  C:\Users\andywei\AppData\Local\Temp\cc7mkTcv.s 			page 7


 219              		.loc 1 129 5 is_stmt 1 view .LVU65
 220              		.loc 1 129 55 is_stmt 0 view .LVU66
 221 002e 6179     		ldrb	r1, [r4, #5]	@ zero_extendqisi2
 222              		.loc 1 129 40 view .LVU67
 223 0030 0A43     		orrs	r2, r2, r1
 224 0032 DA80     		strh	r2, [r3, #6]	@ movhi
 130:Drivers/radio/Si446x/si446x_api_lib.c ****     Si446xCmd.PART_INFO.CUSTOMER        = Pro2Cmd[6];
 225              		.loc 1 130 5 is_stmt 1 view .LVU68
 226              		.loc 1 130 50 is_stmt 0 view .LVU69
 227 0034 A279     		ldrb	r2, [r4, #6]	@ zero_extendqisi2
 228              		.loc 1 130 41 view .LVU70
 229 0036 1A72     		strb	r2, [r3, #8]
 131:Drivers/radio/Si446x/si446x_api_lib.c ****     Si446xCmd.PART_INFO.ROMID           = Pro2Cmd[7];
 230              		.loc 1 131 5 is_stmt 1 view .LVU71
 231              		.loc 1 131 50 is_stmt 0 view .LVU72
 232 0038 E279     		ldrb	r2, [r4, #7]	@ zero_extendqisi2
 233              		.loc 1 131 41 view .LVU73
 234 003a 5A72     		strb	r2, [r3, #9]
 132:Drivers/radio/Si446x/si446x_api_lib.c **** }
 235              		.loc 1 132 1 view .LVU74
 236 003c 10BD     		pop	{r4, pc}
 237              	.L14:
 238 003e 00BF     		.align	2
 239              	.L13:
 240 0040 00000000 		.word	.LANCHOR0
 241 0044 00000000 		.word	.LANCHOR1
 242              		.cfi_endproc
 243              	.LFE138:
 245              		.section	.text.si446x_start_tx,"ax",%progbits
 246              		.align	1
 247              		.global	si446x_start_tx
 248              		.syntax unified
 249              		.thumb
 250              		.thumb_func
 251              		.fpu fpv4-sp-d16
 253              	si446x_start_tx:
 254              	.LVL14:
 255              	.LFB139:
 133:Drivers/radio/Si446x/si446x_api_lib.c **** 
 134:Drivers/radio/Si446x/si446x_api_lib.c **** /*! Sends START_TX command to the radio.
 135:Drivers/radio/Si446x/si446x_api_lib.c ****  *
 136:Drivers/radio/Si446x/si446x_api_lib.c ****  * @param CHANNEL   Channel number.
 137:Drivers/radio/Si446x/si446x_api_lib.c ****  * @param CONDITION Start TX condition.
 138:Drivers/radio/Si446x/si446x_api_lib.c ****  * @param TX_LEN    Payload length (exclude the PH generated CRC).
 139:Drivers/radio/Si446x/si446x_api_lib.c ****  */
 140:Drivers/radio/Si446x/si446x_api_lib.c **** void si446x_start_tx(U8 CHANNEL, U8 CONDITION, U16 TX_LEN)
 141:Drivers/radio/Si446x/si446x_api_lib.c **** {
 256              		.loc 1 141 1 is_stmt 1 view -0
 257              		.cfi_startproc
 258              		@ args = 0, pretend = 0, frame = 0
 259              		@ frame_needed = 0, uses_anonymous_args = 0
 260              		.loc 1 141 1 is_stmt 0 view .LVU76
 261 0000 08B5     		push	{r3, lr}
 262              	.LCFI3:
 263              		.cfi_def_cfa_offset 8
 264              		.cfi_offset 3, -8
 265              		.cfi_offset 14, -4
ARM GAS  C:\Users\andywei\AppData\Local\Temp\cc7mkTcv.s 			page 8


 142:Drivers/radio/Si446x/si446x_api_lib.c ****     Pro2Cmd[0] = SI446X_CMD_ID_START_TX;
 266              		.loc 1 142 5 is_stmt 1 view .LVU77
 267              		.loc 1 142 16 is_stmt 0 view .LVU78
 268 0002 094B     		ldr	r3, .L17
 269 0004 4FF0310C 		mov	ip, #49
 270 0008 83F800C0 		strb	ip, [r3]
 143:Drivers/radio/Si446x/si446x_api_lib.c ****     Pro2Cmd[1] = CHANNEL;
 271              		.loc 1 143 5 is_stmt 1 view .LVU79
 272              		.loc 1 143 16 is_stmt 0 view .LVU80
 273 000c 5870     		strb	r0, [r3, #1]
 144:Drivers/radio/Si446x/si446x_api_lib.c ****     Pro2Cmd[2] = CONDITION;
 274              		.loc 1 144 5 is_stmt 1 view .LVU81
 275              		.loc 1 144 16 is_stmt 0 view .LVU82
 276 000e 9970     		strb	r1, [r3, #2]
 145:Drivers/radio/Si446x/si446x_api_lib.c ****     Pro2Cmd[3] = (U8)(TX_LEN >> 8);
 277              		.loc 1 145 5 is_stmt 1 view .LVU83
 278              		.loc 1 145 18 is_stmt 0 view .LVU84
 279 0010 110A     		lsrs	r1, r2, #8
 280              	.LVL15:
 281              		.loc 1 145 16 view .LVU85
 282 0012 D970     		strb	r1, [r3, #3]
 146:Drivers/radio/Si446x/si446x_api_lib.c ****     Pro2Cmd[4] = (U8)(TX_LEN);
 283              		.loc 1 146 5 is_stmt 1 view .LVU86
 284              		.loc 1 146 16 is_stmt 0 view .LVU87
 285 0014 1A71     		strb	r2, [r3, #4]
 147:Drivers/radio/Si446x/si446x_api_lib.c ****     Pro2Cmd[5] = 0x00;
 286              		.loc 1 147 5 is_stmt 1 view .LVU88
 287              		.loc 1 147 16 is_stmt 0 view .LVU89
 288 0016 0022     		movs	r2, #0
 289              	.LVL16:
 290              		.loc 1 147 16 view .LVU90
 291 0018 5A71     		strb	r2, [r3, #5]
 148:Drivers/radio/Si446x/si446x_api_lib.c **** 
 149:Drivers/radio/Si446x/si446x_api_lib.c ****     // Don't repeat the packet, 
 150:Drivers/radio/Si446x/si446x_api_lib.c ****     // ie. transmit the packet only once
 151:Drivers/radio/Si446x/si446x_api_lib.c ****     Pro2Cmd[6] = 0x00;
 292              		.loc 1 151 5 is_stmt 1 view .LVU91
 293              		.loc 1 151 16 is_stmt 0 view .LVU92
 294 001a 9A71     		strb	r2, [r3, #6]
 152:Drivers/radio/Si446x/si446x_api_lib.c **** 
 153:Drivers/radio/Si446x/si446x_api_lib.c ****     
 154:Drivers/radio/Si446x/si446x_api_lib.c ****     radio_comm_SendCmd( SI446X_CMD_ARG_COUNT_START_TX, Pro2Cmd );
 295              		.loc 1 154 5 is_stmt 1 view .LVU93
 296 001c 1946     		mov	r1, r3
 297 001e 0720     		movs	r0, #7
 298              	.LVL17:
 299              		.loc 1 154 5 is_stmt 0 view .LVU94
 300 0020 FFF7FEFF 		bl	radio_comm_SendCmd
 301              	.LVL18:
 155:Drivers/radio/Si446x/si446x_api_lib.c **** }
 302              		.loc 1 155 1 view .LVU95
 303 0024 08BD     		pop	{r3, pc}
 304              	.L18:
 305 0026 00BF     		.align	2
 306              	.L17:
 307 0028 00000000 		.word	.LANCHOR0
 308              		.cfi_endproc
ARM GAS  C:\Users\andywei\AppData\Local\Temp\cc7mkTcv.s 			page 9


 309              	.LFE139:
 311              		.section	.text.si446x_start_rx,"ax",%progbits
 312              		.align	1
 313              		.global	si446x_start_rx
 314              		.syntax unified
 315              		.thumb
 316              		.thumb_func
 317              		.fpu fpv4-sp-d16
 319              	si446x_start_rx:
 320              	.LVL19:
 321              	.LFB140:
 156:Drivers/radio/Si446x/si446x_api_lib.c **** 
 157:Drivers/radio/Si446x/si446x_api_lib.c **** /*!
 158:Drivers/radio/Si446x/si446x_api_lib.c ****  * Sends START_RX command to the radio.
 159:Drivers/radio/Si446x/si446x_api_lib.c ****  *
 160:Drivers/radio/Si446x/si446x_api_lib.c ****  * @param CHANNEL     Channel number.
 161:Drivers/radio/Si446x/si446x_api_lib.c ****  * @param CONDITION   Start RX condition.
 162:Drivers/radio/Si446x/si446x_api_lib.c ****  * @param RX_LEN      Payload length (exclude the PH generated CRC).
 163:Drivers/radio/Si446x/si446x_api_lib.c ****  * @param NEXT_STATE1 Next state when Preamble Timeout occurs.
 164:Drivers/radio/Si446x/si446x_api_lib.c ****  * @param NEXT_STATE2 Next state when a valid packet received.
 165:Drivers/radio/Si446x/si446x_api_lib.c ****  * @param NEXT_STATE3 Next state when invalid packet received (e.g. CRC error).
 166:Drivers/radio/Si446x/si446x_api_lib.c ****  */
 167:Drivers/radio/Si446x/si446x_api_lib.c **** void si446x_start_rx(U8 CHANNEL, U8 CONDITION, U16 RX_LEN, U8 NEXT_STATE1, U8 NEXT_STATE2, U8 NEXT_
 168:Drivers/radio/Si446x/si446x_api_lib.c **** {
 322              		.loc 1 168 1 is_stmt 1 view -0
 323              		.cfi_startproc
 324              		@ args = 8, pretend = 0, frame = 0
 325              		@ frame_needed = 0, uses_anonymous_args = 0
 326              		.loc 1 168 1 is_stmt 0 view .LVU97
 327 0000 08B5     		push	{r3, lr}
 328              	.LCFI4:
 329              		.cfi_def_cfa_offset 8
 330              		.cfi_offset 3, -8
 331              		.cfi_offset 14, -4
 332 0002 8C46     		mov	ip, r1
 169:Drivers/radio/Si446x/si446x_api_lib.c ****     Pro2Cmd[0] = SI446X_CMD_ID_START_RX;
 333              		.loc 1 169 5 is_stmt 1 view .LVU98
 334              		.loc 1 169 16 is_stmt 0 view .LVU99
 335 0004 0A49     		ldr	r1, .L21
 336              	.LVL20:
 337              		.loc 1 169 16 view .LVU100
 338 0006 4FF0320E 		mov	lr, #50
 339 000a 81F800E0 		strb	lr, [r1]
 170:Drivers/radio/Si446x/si446x_api_lib.c ****     Pro2Cmd[1] = CHANNEL;
 340              		.loc 1 170 5 is_stmt 1 view .LVU101
 341              		.loc 1 170 16 is_stmt 0 view .LVU102
 342 000e 4870     		strb	r0, [r1, #1]
 171:Drivers/radio/Si446x/si446x_api_lib.c ****     Pro2Cmd[2] = CONDITION;
 343              		.loc 1 171 5 is_stmt 1 view .LVU103
 344              		.loc 1 171 16 is_stmt 0 view .LVU104
 345 0010 81F802C0 		strb	ip, [r1, #2]
 172:Drivers/radio/Si446x/si446x_api_lib.c ****     Pro2Cmd[3] = (U8)(RX_LEN >> 8);
 346              		.loc 1 172 5 is_stmt 1 view .LVU105
 347              		.loc 1 172 18 is_stmt 0 view .LVU106
 348 0014 100A     		lsrs	r0, r2, #8
 349              	.LVL21:
 350              		.loc 1 172 16 view .LVU107
ARM GAS  C:\Users\andywei\AppData\Local\Temp\cc7mkTcv.s 			page 10


 351 0016 C870     		strb	r0, [r1, #3]
 173:Drivers/radio/Si446x/si446x_api_lib.c ****     Pro2Cmd[4] = (U8)(RX_LEN);
 352              		.loc 1 173 5 is_stmt 1 view .LVU108
 353              		.loc 1 173 16 is_stmt 0 view .LVU109
 354 0018 0A71     		strb	r2, [r1, #4]
 174:Drivers/radio/Si446x/si446x_api_lib.c ****     Pro2Cmd[5] = NEXT_STATE1;
 355              		.loc 1 174 5 is_stmt 1 view .LVU110
 356              		.loc 1 174 16 is_stmt 0 view .LVU111
 357 001a 4B71     		strb	r3, [r1, #5]
 175:Drivers/radio/Si446x/si446x_api_lib.c ****     Pro2Cmd[6] = NEXT_STATE2;
 358              		.loc 1 175 5 is_stmt 1 view .LVU112
 359              		.loc 1 175 16 is_stmt 0 view .LVU113
 360 001c 9DF80830 		ldrb	r3, [sp, #8]	@ zero_extendqisi2
 361              	.LVL22:
 362              		.loc 1 175 16 view .LVU114
 363 0020 8B71     		strb	r3, [r1, #6]
 176:Drivers/radio/Si446x/si446x_api_lib.c ****     Pro2Cmd[7] = NEXT_STATE3;
 364              		.loc 1 176 5 is_stmt 1 view .LVU115
 365              		.loc 1 176 16 is_stmt 0 view .LVU116
 366 0022 9DF80C30 		ldrb	r3, [sp, #12]	@ zero_extendqisi2
 367 0026 CB71     		strb	r3, [r1, #7]
 177:Drivers/radio/Si446x/si446x_api_lib.c **** 
 178:Drivers/radio/Si446x/si446x_api_lib.c ****     radio_comm_SendCmd( SI446X_CMD_ARG_COUNT_START_RX, Pro2Cmd );
 368              		.loc 1 178 5 is_stmt 1 view .LVU117
 369 0028 0820     		movs	r0, #8
 370 002a FFF7FEFF 		bl	radio_comm_SendCmd
 371              	.LVL23:
 179:Drivers/radio/Si446x/si446x_api_lib.c **** }
 372              		.loc 1 179 1 is_stmt 0 view .LVU118
 373 002e 08BD     		pop	{r3, pc}
 374              	.LVL24:
 375              	.L22:
 376              		.loc 1 179 1 view .LVU119
 377              		.align	2
 378              	.L21:
 379 0030 00000000 		.word	.LANCHOR0
 380              		.cfi_endproc
 381              	.LFE140:
 383              		.section	.text.si446x_get_int_status,"ax",%progbits
 384              		.align	1
 385              		.global	si446x_get_int_status
 386              		.syntax unified
 387              		.thumb
 388              		.thumb_func
 389              		.fpu fpv4-sp-d16
 391              	si446x_get_int_status:
 392              	.LVL25:
 393              	.LFB141:
 180:Drivers/radio/Si446x/si446x_api_lib.c **** 
 181:Drivers/radio/Si446x/si446x_api_lib.c **** /*!
 182:Drivers/radio/Si446x/si446x_api_lib.c ****  * Get the Interrupt status/pending flags form the radio and clear flags if requested.
 183:Drivers/radio/Si446x/si446x_api_lib.c ****  *
 184:Drivers/radio/Si446x/si446x_api_lib.c ****  * @param PH_CLR_PEND     Packet Handler pending flags clear.
 185:Drivers/radio/Si446x/si446x_api_lib.c ****  * @param MODEM_CLR_PEND  Modem Status pending flags clear.
 186:Drivers/radio/Si446x/si446x_api_lib.c ****  * @param CHIP_CLR_PEND   Chip State pending flags clear.
 187:Drivers/radio/Si446x/si446x_api_lib.c ****  */
 188:Drivers/radio/Si446x/si446x_api_lib.c **** void si446x_get_int_status(U8 PH_CLR_PEND, U8 MODEM_CLR_PEND, U8 CHIP_CLR_PEND)
ARM GAS  C:\Users\andywei\AppData\Local\Temp\cc7mkTcv.s 			page 11


 189:Drivers/radio/Si446x/si446x_api_lib.c **** {
 394              		.loc 1 189 1 is_stmt 1 view -0
 395              		.cfi_startproc
 396              		@ args = 0, pretend = 0, frame = 0
 397              		@ frame_needed = 0, uses_anonymous_args = 0
 398              		.loc 1 189 1 is_stmt 0 view .LVU121
 399 0000 10B5     		push	{r4, lr}
 400              	.LCFI5:
 401              		.cfi_def_cfa_offset 8
 402              		.cfi_offset 4, -8
 403              		.cfi_offset 14, -4
 190:Drivers/radio/Si446x/si446x_api_lib.c ****     Pro2Cmd[0] = SI446X_CMD_ID_GET_INT_STATUS;
 404              		.loc 1 190 5 is_stmt 1 view .LVU122
 405              		.loc 1 190 16 is_stmt 0 view .LVU123
 406 0002 0F4C     		ldr	r4, .L25
 407 0004 2023     		movs	r3, #32
 408 0006 2370     		strb	r3, [r4]
 191:Drivers/radio/Si446x/si446x_api_lib.c ****     Pro2Cmd[1] = PH_CLR_PEND;
 409              		.loc 1 191 5 is_stmt 1 view .LVU124
 410              		.loc 1 191 16 is_stmt 0 view .LVU125
 411 0008 6070     		strb	r0, [r4, #1]
 192:Drivers/radio/Si446x/si446x_api_lib.c ****     Pro2Cmd[2] = MODEM_CLR_PEND;
 412              		.loc 1 192 5 is_stmt 1 view .LVU126
 413              		.loc 1 192 16 is_stmt 0 view .LVU127
 414 000a A170     		strb	r1, [r4, #2]
 193:Drivers/radio/Si446x/si446x_api_lib.c ****     Pro2Cmd[3] = CHIP_CLR_PEND;
 415              		.loc 1 193 5 is_stmt 1 view .LVU128
 416              		.loc 1 193 16 is_stmt 0 view .LVU129
 417 000c E270     		strb	r2, [r4, #3]
 194:Drivers/radio/Si446x/si446x_api_lib.c **** 
 195:Drivers/radio/Si446x/si446x_api_lib.c ****     radio_comm_SendCmdGetResp( SI446X_CMD_ARG_COUNT_GET_INT_STATUS,
 418              		.loc 1 195 5 is_stmt 1 view .LVU130
 419 000e 2346     		mov	r3, r4
 420 0010 0822     		movs	r2, #8
 421              	.LVL26:
 422              		.loc 1 195 5 is_stmt 0 view .LVU131
 423 0012 2146     		mov	r1, r4
 424              	.LVL27:
 425              		.loc 1 195 5 view .LVU132
 426 0014 0420     		movs	r0, #4
 427              	.LVL28:
 428              		.loc 1 195 5 view .LVU133
 429 0016 FFF7FEFF 		bl	radio_comm_SendCmdGetResp
 430              	.LVL29:
 196:Drivers/radio/Si446x/si446x_api_lib.c ****                               Pro2Cmd,
 197:Drivers/radio/Si446x/si446x_api_lib.c ****                               SI446X_CMD_REPLY_COUNT_GET_INT_STATUS,
 198:Drivers/radio/Si446x/si446x_api_lib.c ****                               Pro2Cmd );
 199:Drivers/radio/Si446x/si446x_api_lib.c **** 
 200:Drivers/radio/Si446x/si446x_api_lib.c ****     Si446xCmd.GET_INT_STATUS.INT_PEND       = Pro2Cmd[0];
 431              		.loc 1 200 5 is_stmt 1 view .LVU134
 432              		.loc 1 200 54 is_stmt 0 view .LVU135
 433 001a 2278     		ldrb	r2, [r4]	@ zero_extendqisi2
 434              		.loc 1 200 45 view .LVU136
 435 001c 094B     		ldr	r3, .L25+4
 436 001e 1A70     		strb	r2, [r3]
 201:Drivers/radio/Si446x/si446x_api_lib.c ****     Si446xCmd.GET_INT_STATUS.INT_STATUS     = Pro2Cmd[1];
 437              		.loc 1 201 5 is_stmt 1 view .LVU137
ARM GAS  C:\Users\andywei\AppData\Local\Temp\cc7mkTcv.s 			page 12


 438              		.loc 1 201 54 is_stmt 0 view .LVU138
 439 0020 6278     		ldrb	r2, [r4, #1]	@ zero_extendqisi2
 440              		.loc 1 201 45 view .LVU139
 441 0022 5A70     		strb	r2, [r3, #1]
 202:Drivers/radio/Si446x/si446x_api_lib.c ****     Si446xCmd.GET_INT_STATUS.PH_PEND        = Pro2Cmd[2];
 442              		.loc 1 202 5 is_stmt 1 view .LVU140
 443              		.loc 1 202 54 is_stmt 0 view .LVU141
 444 0024 A278     		ldrb	r2, [r4, #2]	@ zero_extendqisi2
 445              		.loc 1 202 45 view .LVU142
 446 0026 9A70     		strb	r2, [r3, #2]
 203:Drivers/radio/Si446x/si446x_api_lib.c ****     Si446xCmd.GET_INT_STATUS.PH_STATUS      = Pro2Cmd[3];
 447              		.loc 1 203 5 is_stmt 1 view .LVU143
 448              		.loc 1 203 54 is_stmt 0 view .LVU144
 449 0028 E278     		ldrb	r2, [r4, #3]	@ zero_extendqisi2
 450              		.loc 1 203 45 view .LVU145
 451 002a DA70     		strb	r2, [r3, #3]
 204:Drivers/radio/Si446x/si446x_api_lib.c ****     Si446xCmd.GET_INT_STATUS.MODEM_PEND     = Pro2Cmd[4];
 452              		.loc 1 204 5 is_stmt 1 view .LVU146
 453              		.loc 1 204 54 is_stmt 0 view .LVU147
 454 002c 2279     		ldrb	r2, [r4, #4]	@ zero_extendqisi2
 455              		.loc 1 204 45 view .LVU148
 456 002e 1A71     		strb	r2, [r3, #4]
 205:Drivers/radio/Si446x/si446x_api_lib.c ****     Si446xCmd.GET_INT_STATUS.MODEM_STATUS   = Pro2Cmd[5];
 457              		.loc 1 205 5 is_stmt 1 view .LVU149
 458              		.loc 1 205 54 is_stmt 0 view .LVU150
 459 0030 6279     		ldrb	r2, [r4, #5]	@ zero_extendqisi2
 460              		.loc 1 205 45 view .LVU151
 461 0032 5A71     		strb	r2, [r3, #5]
 206:Drivers/radio/Si446x/si446x_api_lib.c ****     Si446xCmd.GET_INT_STATUS.CHIP_PEND      = Pro2Cmd[6];
 462              		.loc 1 206 5 is_stmt 1 view .LVU152
 463              		.loc 1 206 54 is_stmt 0 view .LVU153
 464 0034 A279     		ldrb	r2, [r4, #6]	@ zero_extendqisi2
 465              		.loc 1 206 45 view .LVU154
 466 0036 9A71     		strb	r2, [r3, #6]
 207:Drivers/radio/Si446x/si446x_api_lib.c ****     Si446xCmd.GET_INT_STATUS.CHIP_STATUS    = Pro2Cmd[7];
 467              		.loc 1 207 5 is_stmt 1 view .LVU155
 468              		.loc 1 207 54 is_stmt 0 view .LVU156
 469 0038 E279     		ldrb	r2, [r4, #7]	@ zero_extendqisi2
 470              		.loc 1 207 45 view .LVU157
 471 003a DA71     		strb	r2, [r3, #7]
 208:Drivers/radio/Si446x/si446x_api_lib.c **** }
 472              		.loc 1 208 1 view .LVU158
 473 003c 10BD     		pop	{r4, pc}
 474              	.L26:
 475 003e 00BF     		.align	2
 476              	.L25:
 477 0040 00000000 		.word	.LANCHOR0
 478 0044 00000000 		.word	.LANCHOR1
 479              		.cfi_endproc
 480              	.LFE141:
 482              		.section	.text.si446x_configuration_init,"ax",%progbits
 483              		.align	1
 484              		.global	si446x_configuration_init
 485              		.syntax unified
 486              		.thumb
 487              		.thumb_func
 488              		.fpu fpv4-sp-d16
ARM GAS  C:\Users\andywei\AppData\Local\Temp\cc7mkTcv.s 			page 13


 490              	si446x_configuration_init:
 491              	.LVL30:
 492              	.LFB137:
  66:Drivers/radio/Si446x/si446x_api_lib.c ****   SEGMENT_VARIABLE(col, U8, SEG_DATA);
 493              		.loc 1 66 1 is_stmt 1 view -0
 494              		.cfi_startproc
 495              		@ args = 0, pretend = 0, frame = 0
 496              		@ frame_needed = 0, uses_anonymous_args = 0
  66:Drivers/radio/Si446x/si446x_api_lib.c ****   SEGMENT_VARIABLE(col, U8, SEG_DATA);
 497              		.loc 1 66 1 is_stmt 0 view .LVU160
 498 0000 10B5     		push	{r4, lr}
 499              	.LCFI6:
 500              		.cfi_def_cfa_offset 8
 501              		.cfi_offset 4, -8
 502              		.cfi_offset 14, -4
 503 0002 0446     		mov	r4, r0
  67:Drivers/radio/Si446x/si446x_api_lib.c ****   SEGMENT_VARIABLE(numOfBytes, U8, SEG_DATA);
 504              		.loc 1 67 3 is_stmt 1 view .LVU161
  68:Drivers/radio/Si446x/si446x_api_lib.c **** 
 505              		.loc 1 68 3 view .LVU162
  71:Drivers/radio/Si446x/si446x_api_lib.c ****   {
 506              		.loc 1 71 3 view .LVU163
  71:Drivers/radio/Si446x/si446x_api_lib.c ****   {
 507              		.loc 1 71 9 is_stmt 0 view .LVU164
 508 0004 11E0     		b	.L28
 509              	.LVL31:
 510              	.L31:
  88:Drivers/radio/Si446x/si446x_api_lib.c ****       pSetPropCmd++;
 511              		.loc 1 88 7 is_stmt 1 discriminator 3 view .LVU165
  88:Drivers/radio/Si446x/si446x_api_lib.c ****       pSetPropCmd++;
 512              		.loc 1 88 22 is_stmt 0 discriminator 3 view .LVU166
 513 0006 14F8011B 		ldrb	r1, [r4], #1	@ zero_extendqisi2
 514              	.LVL32:
  88:Drivers/radio/Si446x/si446x_api_lib.c ****       pSetPropCmd++;
 515              		.loc 1 88 20 discriminator 3 view .LVU167
 516 000a 134A     		ldr	r2, .L39
 517 000c D154     		strb	r1, [r2, r3]
  89:Drivers/radio/Si446x/si446x_api_lib.c ****     }
 518              		.loc 1 89 7 is_stmt 1 discriminator 3 view .LVU168
 519              	.LVL33:
  86:Drivers/radio/Si446x/si446x_api_lib.c ****     {
 520              		.loc 1 86 38 discriminator 3 view .LVU169
  86:Drivers/radio/Si446x/si446x_api_lib.c ****     {
 521              		.loc 1 86 41 is_stmt 0 discriminator 3 view .LVU170
 522 000e 0133     		adds	r3, r3, #1
 523              	.LVL34:
  86:Drivers/radio/Si446x/si446x_api_lib.c ****     {
 524              		.loc 1 86 41 discriminator 3 view .LVU171
 525 0010 DBB2     		uxtb	r3, r3
 526              	.LVL35:
 527              	.L30:
  86:Drivers/radio/Si446x/si446x_api_lib.c ****     {
 528              		.loc 1 86 20 is_stmt 1 discriminator 1 view .LVU172
  86:Drivers/radio/Si446x/si446x_api_lib.c ****     {
 529              		.loc 1 86 5 is_stmt 0 discriminator 1 view .LVU173
 530 0012 9842     		cmp	r0, r3
 531 0014 F7D8     		bhi	.L31
ARM GAS  C:\Users\andywei\AppData\Local\Temp\cc7mkTcv.s 			page 14


  92:Drivers/radio/Si446x/si446x_api_lib.c ****     {
 532              		.loc 1 92 5 is_stmt 1 view .LVU174
  92:Drivers/radio/Si446x/si446x_api_lib.c ****     {
 533              		.loc 1 92 9 is_stmt 0 view .LVU175
 534 0016 0023     		movs	r3, #0
 535              	.LVL36:
  92:Drivers/radio/Si446x/si446x_api_lib.c ****     {
 536              		.loc 1 92 9 view .LVU176
 537 0018 1A46     		mov	r2, r3
 538 001a 0F49     		ldr	r1, .L39
 539 001c FFF7FEFF 		bl	radio_comm_SendCmdGetResp
 540              	.LVL37:
  92:Drivers/radio/Si446x/si446x_api_lib.c ****     {
 541              		.loc 1 92 8 view .LVU177
 542 0020 FF28     		cmp	r0, #255
 543 0022 17D1     		bne	.L35
  98:Drivers/radio/Si446x/si446x_api_lib.c ****     {
 544              		.loc 1 98 5 is_stmt 1 view .LVU178
  98:Drivers/radio/Si446x/si446x_api_lib.c ****     {
 545              		.loc 1 98 9 is_stmt 0 view .LVU179
 546 0024 FFF7FEFF 		bl	radio_hal_NirqLevel
 547              	.LVL38:
  98:Drivers/radio/Si446x/si446x_api_lib.c ****     {
 548              		.loc 1 98 8 view .LVU180
 549 0028 30B1     		cbz	r0, .L38
 550              	.L28:
  71:Drivers/radio/Si446x/si446x_api_lib.c ****   {
 551              		.loc 1 71 9 is_stmt 1 view .LVU181
  71:Drivers/radio/Si446x/si446x_api_lib.c ****   {
 552              		.loc 1 71 10 is_stmt 0 view .LVU182
 553 002a 2078     		ldrb	r0, [r4]	@ zero_extendqisi2
  71:Drivers/radio/Si446x/si446x_api_lib.c ****   {
 554              		.loc 1 71 9 view .LVU183
 555 002c 88B1     		cbz	r0, .L29
  78:Drivers/radio/Si446x/si446x_api_lib.c **** 
 556              		.loc 1 78 5 is_stmt 1 view .LVU184
  78:Drivers/radio/Si446x/si446x_api_lib.c **** 
 557              		.loc 1 78 30 is_stmt 0 view .LVU185
 558 002e 0134     		adds	r4, r4, #1
 559              	.LVL39:
  80:Drivers/radio/Si446x/si446x_api_lib.c ****     {
 560              		.loc 1 80 5 is_stmt 1 view .LVU186
  80:Drivers/radio/Si446x/si446x_api_lib.c ****     {
 561              		.loc 1 80 8 is_stmt 0 view .LVU187
 562 0030 1028     		cmp	r0, #16
 563 0032 0DD8     		bhi	.L34
  86:Drivers/radio/Si446x/si446x_api_lib.c ****     {
 564              		.loc 1 86 14 view .LVU188
 565 0034 0023     		movs	r3, #0
 566 0036 ECE7     		b	.L30
 567              	.LVL40:
 568              	.L38:
 101:Drivers/radio/Si446x/si446x_api_lib.c ****       if (Si446xCmd.GET_INT_STATUS.CHIP_PEND & SI446X_CMD_GET_CHIP_STATUS_REP_CHIP_PEND_CMD_ERROR_P
 569              		.loc 1 101 7 is_stmt 1 view .LVU189
 570 0038 0022     		movs	r2, #0
 571 003a 1146     		mov	r1, r2
 572 003c 1046     		mov	r0, r2
ARM GAS  C:\Users\andywei\AppData\Local\Temp\cc7mkTcv.s 			page 15


 573 003e FFF7FEFF 		bl	si446x_get_int_status
 574              	.LVL41:
 102:Drivers/radio/Si446x/si446x_api_lib.c ****       {
 575              		.loc 1 102 7 view .LVU190
 102:Drivers/radio/Si446x/si446x_api_lib.c ****       {
 576              		.loc 1 102 35 is_stmt 0 view .LVU191
 577 0042 064B     		ldr	r3, .L39+4
 578 0044 9B79     		ldrb	r3, [r3, #6]	@ zero_extendqisi2
 102:Drivers/radio/Si446x/si446x_api_lib.c ****       {
 579              		.loc 1 102 10 view .LVU192
 580 0046 13F0080F 		tst	r3, #8
 581 004a EED0     		beq	.L28
 104:Drivers/radio/Si446x/si446x_api_lib.c ****       }
 582              		.loc 1 104 16 view .LVU193
 583 004c 0420     		movs	r0, #4
 584 004e 00E0     		b	.L29
 585              	.LVL42:
 586              	.L34:
  83:Drivers/radio/Si446x/si446x_api_lib.c ****     }
 587              		.loc 1 83 14 view .LVU194
 588 0050 0420     		movs	r0, #4
 589              	.LVL43:
 590              	.L29:
 110:Drivers/radio/Si446x/si446x_api_lib.c **** 
 591              		.loc 1 110 1 view .LVU195
 592 0052 10BD     		pop	{r4, pc}
 593              	.LVL44:
 594              	.L35:
  95:Drivers/radio/Si446x/si446x_api_lib.c ****     }
 595              		.loc 1 95 14 view .LVU196
 596 0054 0220     		movs	r0, #2
 597 0056 FCE7     		b	.L29
 598              	.L40:
 599              		.align	2
 600              	.L39:
 601 0058 00000000 		.word	.LANCHOR0
 602 005c 00000000 		.word	.LANCHOR1
 603              		.cfi_endproc
 604              	.LFE137:
 606              		.section	.text.si446x_gpio_pin_cfg,"ax",%progbits
 607              		.align	1
 608              		.global	si446x_gpio_pin_cfg
 609              		.syntax unified
 610              		.thumb
 611              		.thumb_func
 612              		.fpu fpv4-sp-d16
 614              	si446x_gpio_pin_cfg:
 615              	.LVL45:
 616              	.LFB142:
 209:Drivers/radio/Si446x/si446x_api_lib.c **** 
 210:Drivers/radio/Si446x/si446x_api_lib.c **** /*!
 211:Drivers/radio/Si446x/si446x_api_lib.c ****  * Send GPIO pin config command to the radio and reads the answer into
 212:Drivers/radio/Si446x/si446x_api_lib.c ****  * @Si446xCmd union.
 213:Drivers/radio/Si446x/si446x_api_lib.c ****  *
 214:Drivers/radio/Si446x/si446x_api_lib.c ****  * @param GPIO0       GPIO0 configuration.
 215:Drivers/radio/Si446x/si446x_api_lib.c ****  * @param GPIO1       GPIO1 configuration.
 216:Drivers/radio/Si446x/si446x_api_lib.c ****  * @param GPIO2       GPIO2 configuration.
ARM GAS  C:\Users\andywei\AppData\Local\Temp\cc7mkTcv.s 			page 16


 217:Drivers/radio/Si446x/si446x_api_lib.c ****  * @param GPIO3       GPIO3 configuration.
 218:Drivers/radio/Si446x/si446x_api_lib.c ****  * @param NIRQ        NIRQ configuration.
 219:Drivers/radio/Si446x/si446x_api_lib.c ****  * @param SDO         SDO configuration.
 220:Drivers/radio/Si446x/si446x_api_lib.c ****  * @param GEN_CONFIG  General pin configuration.
 221:Drivers/radio/Si446x/si446x_api_lib.c ****  */
 222:Drivers/radio/Si446x/si446x_api_lib.c **** void si446x_gpio_pin_cfg(U8 GPIO0, U8 GPIO1, U8 GPIO2, U8 GPIO3, U8 NIRQ, U8 SDO, U8 GEN_CONFIG)
 223:Drivers/radio/Si446x/si446x_api_lib.c **** {
 617              		.loc 1 223 1 is_stmt 1 view -0
 618              		.cfi_startproc
 619              		@ args = 12, pretend = 0, frame = 0
 620              		@ frame_needed = 0, uses_anonymous_args = 0
 621              		.loc 1 223 1 is_stmt 0 view .LVU198
 622 0000 10B5     		push	{r4, lr}
 623              	.LCFI7:
 624              		.cfi_def_cfa_offset 8
 625              		.cfi_offset 4, -8
 626              		.cfi_offset 14, -4
 224:Drivers/radio/Si446x/si446x_api_lib.c ****     Pro2Cmd[0] = SI446X_CMD_ID_GPIO_PIN_CFG;
 627              		.loc 1 224 5 is_stmt 1 view .LVU199
 628              		.loc 1 224 16 is_stmt 0 view .LVU200
 629 0002 144C     		ldr	r4, .L43
 630 0004 4FF0130C 		mov	ip, #19
 631 0008 84F800C0 		strb	ip, [r4]
 225:Drivers/radio/Si446x/si446x_api_lib.c ****     Pro2Cmd[1] = GPIO0;
 632              		.loc 1 225 5 is_stmt 1 view .LVU201
 633              		.loc 1 225 16 is_stmt 0 view .LVU202
 634 000c 6070     		strb	r0, [r4, #1]
 226:Drivers/radio/Si446x/si446x_api_lib.c ****     Pro2Cmd[2] = GPIO1;
 635              		.loc 1 226 5 is_stmt 1 view .LVU203
 636              		.loc 1 226 16 is_stmt 0 view .LVU204
 637 000e A170     		strb	r1, [r4, #2]
 227:Drivers/radio/Si446x/si446x_api_lib.c ****     Pro2Cmd[3] = GPIO2;
 638              		.loc 1 227 5 is_stmt 1 view .LVU205
 639              		.loc 1 227 16 is_stmt 0 view .LVU206
 640 0010 E270     		strb	r2, [r4, #3]
 228:Drivers/radio/Si446x/si446x_api_lib.c ****     Pro2Cmd[4] = GPIO3;
 641              		.loc 1 228 5 is_stmt 1 view .LVU207
 642              		.loc 1 228 16 is_stmt 0 view .LVU208
 643 0012 2371     		strb	r3, [r4, #4]
 229:Drivers/radio/Si446x/si446x_api_lib.c ****     Pro2Cmd[5] = NIRQ;
 644              		.loc 1 229 5 is_stmt 1 view .LVU209
 645              		.loc 1 229 16 is_stmt 0 view .LVU210
 646 0014 9DF80830 		ldrb	r3, [sp, #8]	@ zero_extendqisi2
 647              	.LVL46:
 648              		.loc 1 229 16 view .LVU211
 649 0018 6371     		strb	r3, [r4, #5]
 230:Drivers/radio/Si446x/si446x_api_lib.c ****     Pro2Cmd[6] = SDO;
 650              		.loc 1 230 5 is_stmt 1 view .LVU212
 651              		.loc 1 230 16 is_stmt 0 view .LVU213
 652 001a 9DF80C30 		ldrb	r3, [sp, #12]	@ zero_extendqisi2
 653 001e A371     		strb	r3, [r4, #6]
 231:Drivers/radio/Si446x/si446x_api_lib.c ****     Pro2Cmd[7] = GEN_CONFIG;
 654              		.loc 1 231 5 is_stmt 1 view .LVU214
 655              		.loc 1 231 16 is_stmt 0 view .LVU215
 656 0020 9DF81030 		ldrb	r3, [sp, #16]	@ zero_extendqisi2
 657 0024 E371     		strb	r3, [r4, #7]
 232:Drivers/radio/Si446x/si446x_api_lib.c **** 
ARM GAS  C:\Users\andywei\AppData\Local\Temp\cc7mkTcv.s 			page 17


 233:Drivers/radio/Si446x/si446x_api_lib.c ****     radio_comm_SendCmdGetResp( SI446X_CMD_ARG_COUNT_GPIO_PIN_CFG,
 658              		.loc 1 233 5 is_stmt 1 view .LVU216
 659 0026 2346     		mov	r3, r4
 660 0028 0722     		movs	r2, #7
 661              	.LVL47:
 662              		.loc 1 233 5 is_stmt 0 view .LVU217
 663 002a 2146     		mov	r1, r4
 664              	.LVL48:
 665              		.loc 1 233 5 view .LVU218
 666 002c 0820     		movs	r0, #8
 667              	.LVL49:
 668              		.loc 1 233 5 view .LVU219
 669 002e FFF7FEFF 		bl	radio_comm_SendCmdGetResp
 670              	.LVL50:
 234:Drivers/radio/Si446x/si446x_api_lib.c ****                               Pro2Cmd,
 235:Drivers/radio/Si446x/si446x_api_lib.c ****                               SI446X_CMD_REPLY_COUNT_GPIO_PIN_CFG,
 236:Drivers/radio/Si446x/si446x_api_lib.c ****                               Pro2Cmd );
 237:Drivers/radio/Si446x/si446x_api_lib.c **** 
 238:Drivers/radio/Si446x/si446x_api_lib.c ****     Si446xCmd.GPIO_PIN_CFG.GPIO[0]        = Pro2Cmd[0];
 671              		.loc 1 238 5 is_stmt 1 view .LVU220
 672              		.loc 1 238 52 is_stmt 0 view .LVU221
 673 0032 2278     		ldrb	r2, [r4]	@ zero_extendqisi2
 674              		.loc 1 238 43 view .LVU222
 675 0034 084B     		ldr	r3, .L43+4
 676 0036 1A70     		strb	r2, [r3]
 239:Drivers/radio/Si446x/si446x_api_lib.c ****     Si446xCmd.GPIO_PIN_CFG.GPIO[1]        = Pro2Cmd[1];
 677              		.loc 1 239 5 is_stmt 1 view .LVU223
 678              		.loc 1 239 52 is_stmt 0 view .LVU224
 679 0038 6278     		ldrb	r2, [r4, #1]	@ zero_extendqisi2
 680              		.loc 1 239 43 view .LVU225
 681 003a 5A70     		strb	r2, [r3, #1]
 240:Drivers/radio/Si446x/si446x_api_lib.c ****     Si446xCmd.GPIO_PIN_CFG.GPIO[2]        = Pro2Cmd[2];
 682              		.loc 1 240 5 is_stmt 1 view .LVU226
 683              		.loc 1 240 52 is_stmt 0 view .LVU227
 684 003c A278     		ldrb	r2, [r4, #2]	@ zero_extendqisi2
 685              		.loc 1 240 43 view .LVU228
 686 003e 9A70     		strb	r2, [r3, #2]
 241:Drivers/radio/Si446x/si446x_api_lib.c ****     Si446xCmd.GPIO_PIN_CFG.GPIO[3]        = Pro2Cmd[3];
 687              		.loc 1 241 5 is_stmt 1 view .LVU229
 688              		.loc 1 241 52 is_stmt 0 view .LVU230
 689 0040 E278     		ldrb	r2, [r4, #3]	@ zero_extendqisi2
 690              		.loc 1 241 43 view .LVU231
 691 0042 DA70     		strb	r2, [r3, #3]
 242:Drivers/radio/Si446x/si446x_api_lib.c ****     Si446xCmd.GPIO_PIN_CFG.NIRQ         = Pro2Cmd[4];
 692              		.loc 1 242 5 is_stmt 1 view .LVU232
 693              		.loc 1 242 50 is_stmt 0 view .LVU233
 694 0044 2279     		ldrb	r2, [r4, #4]	@ zero_extendqisi2
 695              		.loc 1 242 41 view .LVU234
 696 0046 1A71     		strb	r2, [r3, #4]
 243:Drivers/radio/Si446x/si446x_api_lib.c ****     Si446xCmd.GPIO_PIN_CFG.SDO          = Pro2Cmd[5];
 697              		.loc 1 243 5 is_stmt 1 view .LVU235
 698              		.loc 1 243 50 is_stmt 0 view .LVU236
 699 0048 6279     		ldrb	r2, [r4, #5]	@ zero_extendqisi2
 700              		.loc 1 243 41 view .LVU237
 701 004a 5A71     		strb	r2, [r3, #5]
 244:Drivers/radio/Si446x/si446x_api_lib.c ****     Si446xCmd.GPIO_PIN_CFG.GEN_CONFIG   = Pro2Cmd[6];
 702              		.loc 1 244 5 is_stmt 1 view .LVU238
ARM GAS  C:\Users\andywei\AppData\Local\Temp\cc7mkTcv.s 			page 18


 703              		.loc 1 244 50 is_stmt 0 view .LVU239
 704 004c A279     		ldrb	r2, [r4, #6]	@ zero_extendqisi2
 705              		.loc 1 244 41 view .LVU240
 706 004e 9A71     		strb	r2, [r3, #6]
 245:Drivers/radio/Si446x/si446x_api_lib.c **** }
 707              		.loc 1 245 1 view .LVU241
 708 0050 10BD     		pop	{r4, pc}
 709              	.LVL51:
 710              	.L44:
 711              		.loc 1 245 1 view .LVU242
 712 0052 00BF     		.align	2
 713              	.L43:
 714 0054 00000000 		.word	.LANCHOR0
 715 0058 00000000 		.word	.LANCHOR1
 716              		.cfi_endproc
 717              	.LFE142:
 719              		.section	.text.si446x_set_property,"ax",%progbits
 720              		.align	1
 721              		.global	si446x_set_property
 722              		.syntax unified
 723              		.thumb
 724              		.thumb_func
 725              		.fpu fpv4-sp-d16
 727              	si446x_set_property:
 728              	.LVL52:
 729              	.LFB143:
 246:Drivers/radio/Si446x/si446x_api_lib.c **** 
 247:Drivers/radio/Si446x/si446x_api_lib.c **** /*!
 248:Drivers/radio/Si446x/si446x_api_lib.c ****  * Send SET_PROPERTY command to the radio.
 249:Drivers/radio/Si446x/si446x_api_lib.c ****  *
 250:Drivers/radio/Si446x/si446x_api_lib.c ****  * @param GROUP       Property group.
 251:Drivers/radio/Si446x/si446x_api_lib.c ****  * @param NUM_PROPS   Number of property to be set. The properties must be in ascending order
 252:Drivers/radio/Si446x/si446x_api_lib.c ****  *                    in their sub-property aspect. Max. 12 properties can be set in one command.
 253:Drivers/radio/Si446x/si446x_api_lib.c ****  * @param START_PROP  Start sub-property address.
 254:Drivers/radio/Si446x/si446x_api_lib.c ****  */
 255:Drivers/radio/Si446x/si446x_api_lib.c **** // #ifdef __C51__
 256:Drivers/radio/Si446x/si446x_api_lib.c **** // #pragma maxargs (13)  /* allow 13 bytes for parameters */
 257:Drivers/radio/Si446x/si446x_api_lib.c **** // #endif
 258:Drivers/radio/Si446x/si446x_api_lib.c **** void si446x_set_property( U8 GROUP, U8 NUM_PROPS, U8 START_PROP, U8 data1,U8 data2 )
 259:Drivers/radio/Si446x/si446x_api_lib.c **** {
 730              		.loc 1 259 1 is_stmt 1 view -0
 731              		.cfi_startproc
 732              		@ args = 4, pretend = 0, frame = 0
 733              		@ frame_needed = 0, uses_anonymous_args = 0
 734              		.loc 1 259 1 is_stmt 0 view .LVU244
 735 0000 08B5     		push	{r3, lr}
 736              	.LCFI8:
 737              		.cfi_def_cfa_offset 8
 738              		.cfi_offset 3, -8
 739              		.cfi_offset 14, -4
 740 0002 8C46     		mov	ip, r1
 260:Drivers/radio/Si446x/si446x_api_lib.c ****     // fill data
 261:Drivers/radio/Si446x/si446x_api_lib.c ****     Pro2Cmd[0] = SI446X_CMD_ID_SET_PROPERTY;
 741              		.loc 1 261 5 is_stmt 1 view .LVU245
 742              		.loc 1 261 16 is_stmt 0 view .LVU246
 743 0004 0849     		ldr	r1, .L47
 744              	.LVL53:
ARM GAS  C:\Users\andywei\AppData\Local\Temp\cc7mkTcv.s 			page 19


 745              		.loc 1 261 16 view .LVU247
 746 0006 4FF0110E 		mov	lr, #17
 747 000a 81F800E0 		strb	lr, [r1]
 262:Drivers/radio/Si446x/si446x_api_lib.c ****     Pro2Cmd[1] = GROUP;
 748              		.loc 1 262 5 is_stmt 1 view .LVU248
 749              		.loc 1 262 16 is_stmt 0 view .LVU249
 750 000e 4870     		strb	r0, [r1, #1]
 263:Drivers/radio/Si446x/si446x_api_lib.c ****     Pro2Cmd[2] = NUM_PROPS;
 751              		.loc 1 263 5 is_stmt 1 view .LVU250
 752              		.loc 1 263 16 is_stmt 0 view .LVU251
 753 0010 81F802C0 		strb	ip, [r1, #2]
 264:Drivers/radio/Si446x/si446x_api_lib.c ****     Pro2Cmd[3] = START_PROP;
 754              		.loc 1 264 5 is_stmt 1 view .LVU252
 755              		.loc 1 264 16 is_stmt 0 view .LVU253
 756 0014 CA70     		strb	r2, [r1, #3]
 265:Drivers/radio/Si446x/si446x_api_lib.c ****     Pro2Cmd[4] = data1;
 757              		.loc 1 265 5 is_stmt 1 view .LVU254
 758              		.loc 1 265 16 is_stmt 0 view .LVU255
 759 0016 0B71     		strb	r3, [r1, #4]
 266:Drivers/radio/Si446x/si446x_api_lib.c ****     Pro2Cmd[5] = data2;
 760              		.loc 1 266 5 is_stmt 1 view .LVU256
 761              		.loc 1 266 16 is_stmt 0 view .LVU257
 762 0018 9DF80830 		ldrb	r3, [sp, #8]	@ zero_extendqisi2
 763              	.LVL54:
 764              		.loc 1 266 16 view .LVU258
 765 001c 4B71     		strb	r3, [r1, #5]
 267:Drivers/radio/Si446x/si446x_api_lib.c ****     
 268:Drivers/radio/Si446x/si446x_api_lib.c ****     // send command
 269:Drivers/radio/Si446x/si446x_api_lib.c ****     radio_comm_SendCmd( 6, Pro2Cmd );
 766              		.loc 1 269 5 is_stmt 1 view .LVU259
 767 001e 0620     		movs	r0, #6
 768              	.LVL55:
 769              		.loc 1 269 5 is_stmt 0 view .LVU260
 770 0020 FFF7FEFF 		bl	radio_comm_SendCmd
 771              	.LVL56:
 270:Drivers/radio/Si446x/si446x_api_lib.c **** }
 772              		.loc 1 270 1 view .LVU261
 773 0024 08BD     		pop	{r3, pc}
 774              	.LVL57:
 775              	.L48:
 776              		.loc 1 270 1 view .LVU262
 777 0026 00BF     		.align	2
 778              	.L47:
 779 0028 00000000 		.word	.LANCHOR0
 780              		.cfi_endproc
 781              	.LFE143:
 783              		.section	.rodata.si446x_set_property1.str1.4,"aMS",%progbits,1
 784              		.align	2
 785              	.LC0:
 786 0000 12021100 		.ascii	"\022\002\021\000"
 787              		.section	.text.si446x_set_property1,"ax",%progbits
 788              		.align	1
 789              		.global	si446x_set_property1
 790              		.syntax unified
 791              		.thumb
 792              		.thumb_func
 793              		.fpu fpv4-sp-d16
ARM GAS  C:\Users\andywei\AppData\Local\Temp\cc7mkTcv.s 			page 20


 795              	si446x_set_property1:
 796              	.LVL58:
 797              	.LFB144:
 271:Drivers/radio/Si446x/si446x_api_lib.c **** 
 272:Drivers/radio/Si446x/si446x_api_lib.c **** void si446x_set_property1( U8 GROUP, U8 NUM_PROPS, U8 START_PROP, ... )
 273:Drivers/radio/Si446x/si446x_api_lib.c **** {
 798              		.loc 1 273 1 is_stmt 1 view -0
 799              		.cfi_startproc
 800              		@ args = 4, pretend = 8, frame = 8
 801              		@ frame_needed = 0, uses_anonymous_args = 1
 802              		.loc 1 273 1 is_stmt 0 view .LVU264
 803 0000 0CB4     		push	{r2, r3}
 804              	.LCFI9:
 805              		.cfi_def_cfa_offset 8
 806              		.cfi_offset 2, -8
 807              		.cfi_offset 3, -4
 808 0002 00B5     		push	{lr}
 809              	.LCFI10:
 810              		.cfi_def_cfa_offset 12
 811              		.cfi_offset 14, -12
 812 0004 83B0     		sub	sp, sp, #12
 813              	.LCFI11:
 814              		.cfi_def_cfa_offset 24
 815 0006 04AA     		add	r2, sp, #16
 816 0008 12F804CB 		ldrb	ip, [r2], #4	@ zero_extendqisi2
 274:Drivers/radio/Si446x/si446x_api_lib.c ****     va_list argList;
 817              		.loc 1 274 5 is_stmt 1 view .LVU265
 275:Drivers/radio/Si446x/si446x_api_lib.c ****     U8 cmdIndex;
 818              		.loc 1 275 5 view .LVU266
 276:Drivers/radio/Si446x/si446x_api_lib.c ****     U8 xx[]={0x12,0x02,0x11};
 819              		.loc 1 276 5 view .LVU267
 820              		.loc 1 276 8 is_stmt 0 view .LVU268
 821 000c 0D4B     		ldr	r3, .L53
 822 000e 1B68     		ldr	r3, [r3]
 823 0010 ADF80030 		strh	r3, [sp]	@ movhi
 824 0014 1B0C     		lsrs	r3, r3, #16
 825 0016 8DF80230 		strb	r3, [sp, #2]
 277:Drivers/radio/Si446x/si446x_api_lib.c ****     Pro2Cmd[0] = SI446X_CMD_ID_SET_PROPERTY;
 826              		.loc 1 277 5 is_stmt 1 view .LVU269
 827              		.loc 1 277 16 is_stmt 0 view .LVU270
 828 001a 0B4B     		ldr	r3, .L53+4
 829 001c 4FF0110E 		mov	lr, #17
 830 0020 83F800E0 		strb	lr, [r3]
 278:Drivers/radio/Si446x/si446x_api_lib.c ****     Pro2Cmd[1] = GROUP;
 831              		.loc 1 278 5 is_stmt 1 view .LVU271
 832              		.loc 1 278 16 is_stmt 0 view .LVU272
 833 0024 5870     		strb	r0, [r3, #1]
 279:Drivers/radio/Si446x/si446x_api_lib.c ****     Pro2Cmd[2] = NUM_PROPS;
 834              		.loc 1 279 5 is_stmt 1 view .LVU273
 835              		.loc 1 279 16 is_stmt 0 view .LVU274
 836 0026 9970     		strb	r1, [r3, #2]
 280:Drivers/radio/Si446x/si446x_api_lib.c ****     Pro2Cmd[3] = START_PROP;
 837              		.loc 1 280 5 is_stmt 1 view .LVU275
 838              		.loc 1 280 16 is_stmt 0 view .LVU276
 839 0028 83F803C0 		strb	ip, [r3, #3]
 281:Drivers/radio/Si446x/si446x_api_lib.c **** 
 282:Drivers/radio/Si446x/si446x_api_lib.c ****     va_start (argList, START_PROP);
ARM GAS  C:\Users\andywei\AppData\Local\Temp\cc7mkTcv.s 			page 21


 840              		.loc 1 282 5 is_stmt 1 view .LVU277
 841 002c 0192     		str	r2, [sp, #4]
 283:Drivers/radio/Si446x/si446x_api_lib.c ****     cmdIndex = 4;
 842              		.loc 1 283 5 view .LVU278
 843              	.LVL59:
 284:Drivers/radio/Si446x/si446x_api_lib.c ****     while(NUM_PROPS--)
 844              		.loc 1 284 5 view .LVU279
 845              		.loc 1 284 10 view .LVU280
 846              		.loc 1 284 10 is_stmt 0 view .LVU281
 847 002e 41B9     		cbnz	r1, .L52
 285:Drivers/radio/Si446x/si446x_api_lib.c ****     {
 286:Drivers/radio/Si446x/si446x_api_lib.c ****         Pro2Cmd[cmdIndex] = va_arg (argList, U8);
 287:Drivers/radio/Si446x/si446x_api_lib.c ****         cmdIndex++;
 288:Drivers/radio/Si446x/si446x_api_lib.c ****     }
 289:Drivers/radio/Si446x/si446x_api_lib.c ****     va_end(argList);
 848              		.loc 1 289 5 is_stmt 1 view .LVU282
 290:Drivers/radio/Si446x/si446x_api_lib.c **** 
 291:Drivers/radio/Si446x/si446x_api_lib.c ****     // if(strncmp(&Pro2Cmd[1],xx,3)==0)
 292:Drivers/radio/Si446x/si446x_api_lib.c ****     // {
 293:Drivers/radio/Si446x/si446x_api_lib.c ****     //     printf("change the field2 length\n");
 294:Drivers/radio/Si446x/si446x_api_lib.c ****     // }
 295:Drivers/radio/Si446x/si446x_api_lib.c ****     // else
 296:Drivers/radio/Si446x/si446x_api_lib.c ****     // {
 297:Drivers/radio/Si446x/si446x_api_lib.c ****     //     printf("not change the field2\n");
 298:Drivers/radio/Si446x/si446x_api_lib.c ****     // }
 299:Drivers/radio/Si446x/si446x_api_lib.c **** 
 300:Drivers/radio/Si446x/si446x_api_lib.c ****     
 301:Drivers/radio/Si446x/si446x_api_lib.c **** 
 302:Drivers/radio/Si446x/si446x_api_lib.c ****     radio_comm_SendCmd( cmdIndex, Pro2Cmd );
 849              		.loc 1 302 5 view .LVU283
 850 0030 0549     		ldr	r1, .L53+4
 851              	.LVL60:
 852              		.loc 1 302 5 is_stmt 0 view .LVU284
 853 0032 0420     		movs	r0, #4
 854              	.LVL61:
 855              		.loc 1 302 5 view .LVU285
 856 0034 FFF7FEFF 		bl	radio_comm_SendCmd
 857              	.LVL62:
 303:Drivers/radio/Si446x/si446x_api_lib.c **** }
 858              		.loc 1 303 1 view .LVU286
 859 0038 03B0     		add	sp, sp, #12
 860              	.LCFI12:
 861              		.cfi_remember_state
 862              		.cfi_def_cfa_offset 12
 863              		@ sp needed
 864 003a 5DF804EB 		ldr	lr, [sp], #4
 865              	.LCFI13:
 866              		.cfi_restore 14
 867              		.cfi_def_cfa_offset 8
 868 003e 02B0     		add	sp, sp, #8
 869              	.LCFI14:
 870              		.cfi_restore 3
 871              		.cfi_restore 2
 872              		.cfi_def_cfa_offset 0
 873 0040 7047     		bx	lr
 874              	.LVL63:
 875              	.L52:
ARM GAS  C:\Users\andywei\AppData\Local\Temp\cc7mkTcv.s 			page 22


 876              	.LCFI15:
 877              		.cfi_restore_state
 286:Drivers/radio/Si446x/si446x_api_lib.c ****         cmdIndex++;
 878              		.loc 1 286 9 is_stmt 1 view .LVU287
 286:Drivers/radio/Si446x/si446x_api_lib.c ****         cmdIndex++;
 879              		.loc 1 286 29 is_stmt 0 view .LVU288
 880 0042 FFDE     		.inst	0xdeff
 881              	.L54:
 882              		.align	2
 883              	.L53:
 884 0044 00000000 		.word	.LC0
 885 0048 00000000 		.word	.LANCHOR0
 886              		.cfi_endproc
 887              	.LFE144:
 889              		.section	.text.si446x_change_state,"ax",%progbits
 890              		.align	1
 891              		.global	si446x_change_state
 892              		.syntax unified
 893              		.thumb
 894              		.thumb_func
 895              		.fpu fpv4-sp-d16
 897              	si446x_change_state:
 898              	.LVL64:
 899              	.LFB145:
 304:Drivers/radio/Si446x/si446x_api_lib.c **** 
 305:Drivers/radio/Si446x/si446x_api_lib.c **** /*!
 306:Drivers/radio/Si446x/si446x_api_lib.c ****  * Issue a change state command to the radio.
 307:Drivers/radio/Si446x/si446x_api_lib.c ****  *
 308:Drivers/radio/Si446x/si446x_api_lib.c ****  * @param NEXT_STATE1 Next state.
 309:Drivers/radio/Si446x/si446x_api_lib.c ****  */
 310:Drivers/radio/Si446x/si446x_api_lib.c **** void si446x_change_state(U8 NEXT_STATE1)
 311:Drivers/radio/Si446x/si446x_api_lib.c **** {
 900              		.loc 1 311 1 is_stmt 1 view -0
 901              		.cfi_startproc
 902              		@ args = 0, pretend = 0, frame = 0
 903              		@ frame_needed = 0, uses_anonymous_args = 0
 904              		.loc 1 311 1 is_stmt 0 view .LVU290
 905 0000 08B5     		push	{r3, lr}
 906              	.LCFI16:
 907              		.cfi_def_cfa_offset 8
 908              		.cfi_offset 3, -8
 909              		.cfi_offset 14, -4
 312:Drivers/radio/Si446x/si446x_api_lib.c ****     Pro2Cmd[0] = SI446X_CMD_ID_CHANGE_STATE;
 910              		.loc 1 312 5 is_stmt 1 view .LVU291
 911              		.loc 1 312 16 is_stmt 0 view .LVU292
 912 0002 0449     		ldr	r1, .L57
 913 0004 3423     		movs	r3, #52
 914 0006 0B70     		strb	r3, [r1]
 313:Drivers/radio/Si446x/si446x_api_lib.c ****     Pro2Cmd[1] = NEXT_STATE1;
 915              		.loc 1 313 5 is_stmt 1 view .LVU293
 916              		.loc 1 313 16 is_stmt 0 view .LVU294
 917 0008 4870     		strb	r0, [r1, #1]
 314:Drivers/radio/Si446x/si446x_api_lib.c **** 
 315:Drivers/radio/Si446x/si446x_api_lib.c ****     radio_comm_SendCmd( SI446X_CMD_ARG_COUNT_CHANGE_STATE, Pro2Cmd );
 918              		.loc 1 315 5 is_stmt 1 view .LVU295
 919 000a 0220     		movs	r0, #2
 920              	.LVL65:
ARM GAS  C:\Users\andywei\AppData\Local\Temp\cc7mkTcv.s 			page 23


 921              		.loc 1 315 5 is_stmt 0 view .LVU296
 922 000c FFF7FEFF 		bl	radio_comm_SendCmd
 923              	.LVL66:
 316:Drivers/radio/Si446x/si446x_api_lib.c **** }
 924              		.loc 1 316 1 view .LVU297
 925 0010 08BD     		pop	{r3, pc}
 926              	.L58:
 927 0012 00BF     		.align	2
 928              	.L57:
 929 0014 00000000 		.word	.LANCHOR0
 930              		.cfi_endproc
 931              	.LFE145:
 933              		.section	.text.si446x_nop,"ax",%progbits
 934              		.align	1
 935              		.global	si446x_nop
 936              		.syntax unified
 937              		.thumb
 938              		.thumb_func
 939              		.fpu fpv4-sp-d16
 941              	si446x_nop:
 942              	.LFB146:
 317:Drivers/radio/Si446x/si446x_api_lib.c **** 
 318:Drivers/radio/Si446x/si446x_api_lib.c **** 
 319:Drivers/radio/Si446x/si446x_api_lib.c **** #ifdef RADIO_DRIVER_EXTENDED_SUPPORT
 320:Drivers/radio/Si446x/si446x_api_lib.c **** /* Extended driver support functions */
 321:Drivers/radio/Si446x/si446x_api_lib.c **** /*!
 322:Drivers/radio/Si446x/si446x_api_lib.c ****  * Sends NOP command to the radio. Can be used to maintain SPI communication.
 323:Drivers/radio/Si446x/si446x_api_lib.c ****  */
 324:Drivers/radio/Si446x/si446x_api_lib.c **** void si446x_nop(void)
 325:Drivers/radio/Si446x/si446x_api_lib.c **** {
 943              		.loc 1 325 1 is_stmt 1 view -0
 944              		.cfi_startproc
 945              		@ args = 0, pretend = 0, frame = 0
 946              		@ frame_needed = 0, uses_anonymous_args = 0
 947 0000 08B5     		push	{r3, lr}
 948              	.LCFI17:
 949              		.cfi_def_cfa_offset 8
 950              		.cfi_offset 3, -8
 951              		.cfi_offset 14, -4
 326:Drivers/radio/Si446x/si446x_api_lib.c ****     Pro2Cmd[0] = SI446X_CMD_ID_NOP;
 952              		.loc 1 326 5 view .LVU299
 953              		.loc 1 326 16 is_stmt 0 view .LVU300
 954 0002 0349     		ldr	r1, .L61
 955 0004 0023     		movs	r3, #0
 956 0006 0B70     		strb	r3, [r1]
 327:Drivers/radio/Si446x/si446x_api_lib.c **** 
 328:Drivers/radio/Si446x/si446x_api_lib.c ****     radio_comm_SendCmd( SI446X_CMD_ARG_COUNT_NOP, Pro2Cmd );
 957              		.loc 1 328 5 is_stmt 1 view .LVU301
 958 0008 0120     		movs	r0, #1
 959 000a FFF7FEFF 		bl	radio_comm_SendCmd
 960              	.LVL67:
 329:Drivers/radio/Si446x/si446x_api_lib.c **** }
 961              		.loc 1 329 1 is_stmt 0 view .LVU302
 962 000e 08BD     		pop	{r3, pc}
 963              	.L62:
 964              		.align	2
 965              	.L61:
ARM GAS  C:\Users\andywei\AppData\Local\Temp\cc7mkTcv.s 			page 24


 966 0010 00000000 		.word	.LANCHOR0
 967              		.cfi_endproc
 968              	.LFE146:
 970              		.section	.text.si446x_fifo_info,"ax",%progbits
 971              		.align	1
 972              		.global	si446x_fifo_info
 973              		.syntax unified
 974              		.thumb
 975              		.thumb_func
 976              		.fpu fpv4-sp-d16
 978              	si446x_fifo_info:
 979              	.LVL68:
 980              	.LFB147:
 330:Drivers/radio/Si446x/si446x_api_lib.c **** 
 331:Drivers/radio/Si446x/si446x_api_lib.c **** /*!
 332:Drivers/radio/Si446x/si446x_api_lib.c ****  * Send the FIFO_INFO command to the radio. Optionally resets the TX/RX FIFO. Reads the radio respo
 333:Drivers/radio/Si446x/si446x_api_lib.c ****  * into @Si446xCmd.
 334:Drivers/radio/Si446x/si446x_api_lib.c ****  *
 335:Drivers/radio/Si446x/si446x_api_lib.c ****  * @param FIFO  RX/TX FIFO reset flags.
 336:Drivers/radio/Si446x/si446x_api_lib.c ****  */
 337:Drivers/radio/Si446x/si446x_api_lib.c **** void si446x_fifo_info(U8 FIFO)
 338:Drivers/radio/Si446x/si446x_api_lib.c **** {
 981              		.loc 1 338 1 is_stmt 1 view -0
 982              		.cfi_startproc
 983              		@ args = 0, pretend = 0, frame = 0
 984              		@ frame_needed = 0, uses_anonymous_args = 0
 985              		.loc 1 338 1 is_stmt 0 view .LVU304
 986 0000 10B5     		push	{r4, lr}
 987              	.LCFI18:
 988              		.cfi_def_cfa_offset 8
 989              		.cfi_offset 4, -8
 990              		.cfi_offset 14, -4
 339:Drivers/radio/Si446x/si446x_api_lib.c ****     Pro2Cmd[0] = SI446X_CMD_ID_FIFO_INFO;
 991              		.loc 1 339 5 is_stmt 1 view .LVU305
 992              		.loc 1 339 16 is_stmt 0 view .LVU306
 993 0002 084C     		ldr	r4, .L65
 994 0004 1523     		movs	r3, #21
 995 0006 2370     		strb	r3, [r4]
 340:Drivers/radio/Si446x/si446x_api_lib.c ****     Pro2Cmd[1] = FIFO;
 996              		.loc 1 340 5 is_stmt 1 view .LVU307
 997              		.loc 1 340 16 is_stmt 0 view .LVU308
 998 0008 6070     		strb	r0, [r4, #1]
 341:Drivers/radio/Si446x/si446x_api_lib.c **** 
 342:Drivers/radio/Si446x/si446x_api_lib.c ****     radio_comm_SendCmdGetResp( SI446X_CMD_ARG_COUNT_FIFO_INFO,
 999              		.loc 1 342 5 is_stmt 1 view .LVU309
 1000 000a 2346     		mov	r3, r4
 1001 000c 0222     		movs	r2, #2
 1002 000e 2146     		mov	r1, r4
 1003 0010 1046     		mov	r0, r2
 1004              	.LVL69:
 1005              		.loc 1 342 5 is_stmt 0 view .LVU310
 1006 0012 FFF7FEFF 		bl	radio_comm_SendCmdGetResp
 1007              	.LVL70:
 343:Drivers/radio/Si446x/si446x_api_lib.c ****                               Pro2Cmd,
 344:Drivers/radio/Si446x/si446x_api_lib.c ****                               SI446X_CMD_REPLY_COUNT_FIFO_INFO,
 345:Drivers/radio/Si446x/si446x_api_lib.c ****                               Pro2Cmd );
 346:Drivers/radio/Si446x/si446x_api_lib.c **** 
ARM GAS  C:\Users\andywei\AppData\Local\Temp\cc7mkTcv.s 			page 25


 347:Drivers/radio/Si446x/si446x_api_lib.c ****     Si446xCmd.FIFO_INFO.RX_FIFO_COUNT   = Pro2Cmd[0];
 1008              		.loc 1 347 5 is_stmt 1 view .LVU311
 1009              		.loc 1 347 50 is_stmt 0 view .LVU312
 1010 0016 2278     		ldrb	r2, [r4]	@ zero_extendqisi2
 1011              		.loc 1 347 41 view .LVU313
 1012 0018 034B     		ldr	r3, .L65+4
 1013 001a 1A70     		strb	r2, [r3]
 348:Drivers/radio/Si446x/si446x_api_lib.c ****     Si446xCmd.FIFO_INFO.TX_FIFO_SPACE   = Pro2Cmd[1];
 1014              		.loc 1 348 5 is_stmt 1 view .LVU314
 1015              		.loc 1 348 50 is_stmt 0 view .LVU315
 1016 001c 6278     		ldrb	r2, [r4, #1]	@ zero_extendqisi2
 1017              		.loc 1 348 41 view .LVU316
 1018 001e 5A70     		strb	r2, [r3, #1]
 349:Drivers/radio/Si446x/si446x_api_lib.c **** }
 1019              		.loc 1 349 1 view .LVU317
 1020 0020 10BD     		pop	{r4, pc}
 1021              	.L66:
 1022 0022 00BF     		.align	2
 1023              	.L65:
 1024 0024 00000000 		.word	.LANCHOR0
 1025 0028 00000000 		.word	.LANCHOR1
 1026              		.cfi_endproc
 1027              	.LFE147:
 1029              		.section	.text.si446x_write_tx_fifo,"ax",%progbits
 1030              		.align	1
 1031              		.global	si446x_write_tx_fifo
 1032              		.syntax unified
 1033              		.thumb
 1034              		.thumb_func
 1035              		.fpu fpv4-sp-d16
 1037              	si446x_write_tx_fifo:
 1038              	.LVL71:
 1039              	.LFB148:
 350:Drivers/radio/Si446x/si446x_api_lib.c **** 
 351:Drivers/radio/Si446x/si446x_api_lib.c **** /*!
 352:Drivers/radio/Si446x/si446x_api_lib.c ****  * The function can be used to load data into TX FIFO.
 353:Drivers/radio/Si446x/si446x_api_lib.c ****  *
 354:Drivers/radio/Si446x/si446x_api_lib.c ****  * @param numBytes  Data length to be load.
 355:Drivers/radio/Si446x/si446x_api_lib.c ****  * @param pTxData   Pointer to the data (U8*).
 356:Drivers/radio/Si446x/si446x_api_lib.c ****  */
 357:Drivers/radio/Si446x/si446x_api_lib.c **** void si446x_write_tx_fifo(U8 numBytes, U8* pTxData)
 358:Drivers/radio/Si446x/si446x_api_lib.c **** {
 1040              		.loc 1 358 1 is_stmt 1 view -0
 1041              		.cfi_startproc
 1042              		@ args = 0, pretend = 0, frame = 0
 1043              		@ frame_needed = 0, uses_anonymous_args = 0
 1044              		.loc 1 358 1 is_stmt 0 view .LVU319
 1045 0000 08B5     		push	{r3, lr}
 1046              	.LCFI19:
 1047              		.cfi_def_cfa_offset 8
 1048              		.cfi_offset 3, -8
 1049              		.cfi_offset 14, -4
 1050 0002 0246     		mov	r2, r0
 1051 0004 0B46     		mov	r3, r1
 359:Drivers/radio/Si446x/si446x_api_lib.c ****   radio_comm_WriteData( SI446X_CMD_ID_WRITE_TX_FIFO, 0, numBytes, pTxData );
 1052              		.loc 1 359 3 is_stmt 1 view .LVU320
 1053 0006 0021     		movs	r1, #0
ARM GAS  C:\Users\andywei\AppData\Local\Temp\cc7mkTcv.s 			page 26


 1054              	.LVL72:
 1055              		.loc 1 359 3 is_stmt 0 view .LVU321
 1056 0008 6620     		movs	r0, #102
 1057              	.LVL73:
 1058              		.loc 1 359 3 view .LVU322
 1059 000a FFF7FEFF 		bl	radio_comm_WriteData
 1060              	.LVL74:
 360:Drivers/radio/Si446x/si446x_api_lib.c **** }
 1061              		.loc 1 360 1 view .LVU323
 1062 000e 08BD     		pop	{r3, pc}
 1063              		.cfi_endproc
 1064              	.LFE148:
 1066              		.section	.text.si446x_read_rx_fifo,"ax",%progbits
 1067              		.align	1
 1068              		.global	si446x_read_rx_fifo
 1069              		.syntax unified
 1070              		.thumb
 1071              		.thumb_func
 1072              		.fpu fpv4-sp-d16
 1074              	si446x_read_rx_fifo:
 1075              	.LVL75:
 1076              	.LFB149:
 361:Drivers/radio/Si446x/si446x_api_lib.c **** 
 362:Drivers/radio/Si446x/si446x_api_lib.c **** /*!
 363:Drivers/radio/Si446x/si446x_api_lib.c ****  * Reads the RX FIFO content from the radio.
 364:Drivers/radio/Si446x/si446x_api_lib.c ****  *
 365:Drivers/radio/Si446x/si446x_api_lib.c ****  * @param numBytes  Data length to be read.
 366:Drivers/radio/Si446x/si446x_api_lib.c ****  * @param pRxData   Pointer to the buffer location.
 367:Drivers/radio/Si446x/si446x_api_lib.c ****  */
 368:Drivers/radio/Si446x/si446x_api_lib.c **** void si446x_read_rx_fifo(U8 numBytes, U8* pRxData)
 369:Drivers/radio/Si446x/si446x_api_lib.c **** {
 1077              		.loc 1 369 1 is_stmt 1 view -0
 1078              		.cfi_startproc
 1079              		@ args = 0, pretend = 0, frame = 0
 1080              		@ frame_needed = 0, uses_anonymous_args = 0
 1081              		.loc 1 369 1 is_stmt 0 view .LVU325
 1082 0000 08B5     		push	{r3, lr}
 1083              	.LCFI20:
 1084              		.cfi_def_cfa_offset 8
 1085              		.cfi_offset 3, -8
 1086              		.cfi_offset 14, -4
 1087 0002 0246     		mov	r2, r0
 1088 0004 0B46     		mov	r3, r1
 370:Drivers/radio/Si446x/si446x_api_lib.c ****   radio_comm_ReadData( SI446X_CMD_ID_READ_RX_FIFO, 0, numBytes, pRxData );
 1089              		.loc 1 370 3 is_stmt 1 view .LVU326
 1090 0006 0021     		movs	r1, #0
 1091              	.LVL76:
 1092              		.loc 1 370 3 is_stmt 0 view .LVU327
 1093 0008 7720     		movs	r0, #119
 1094              	.LVL77:
 1095              		.loc 1 370 3 view .LVU328
 1096 000a FFF7FEFF 		bl	radio_comm_ReadData
 1097              	.LVL78:
 371:Drivers/radio/Si446x/si446x_api_lib.c **** }
 1098              		.loc 1 371 1 view .LVU329
 1099 000e 08BD     		pop	{r3, pc}
 1100              		.cfi_endproc
ARM GAS  C:\Users\andywei\AppData\Local\Temp\cc7mkTcv.s 			page 27


 1101              	.LFE149:
 1103              		.section	.text.si446x_get_property,"ax",%progbits
 1104              		.align	1
 1105              		.global	si446x_get_property
 1106              		.syntax unified
 1107              		.thumb
 1108              		.thumb_func
 1109              		.fpu fpv4-sp-d16
 1111              	si446x_get_property:
 1112              	.LVL79:
 1113              	.LFB150:
 372:Drivers/radio/Si446x/si446x_api_lib.c **** 
 373:Drivers/radio/Si446x/si446x_api_lib.c **** /*!
 374:Drivers/radio/Si446x/si446x_api_lib.c ****  * Get property values from the radio. Reads them into Si446xCmd union.
 375:Drivers/radio/Si446x/si446x_api_lib.c ****  *
 376:Drivers/radio/Si446x/si446x_api_lib.c ****  * @param GROUP       Property group number.
 377:Drivers/radio/Si446x/si446x_api_lib.c ****  * @param NUM_PROPS   Number of properties to be read.
 378:Drivers/radio/Si446x/si446x_api_lib.c ****  * @param START_PROP  Starting sub-property number.
 379:Drivers/radio/Si446x/si446x_api_lib.c ****  */
 380:Drivers/radio/Si446x/si446x_api_lib.c **** void si446x_get_property(U8 GROUP, U8 NUM_PROPS, U8 START_PROP)
 381:Drivers/radio/Si446x/si446x_api_lib.c **** {
 1114              		.loc 1 381 1 is_stmt 1 view -0
 1115              		.cfi_startproc
 1116              		@ args = 0, pretend = 0, frame = 0
 1117              		@ frame_needed = 0, uses_anonymous_args = 0
 1118              		.loc 1 381 1 is_stmt 0 view .LVU331
 1119 0000 10B5     		push	{r4, lr}
 1120              	.LCFI21:
 1121              		.cfi_def_cfa_offset 8
 1122              		.cfi_offset 4, -8
 1123              		.cfi_offset 14, -4
 382:Drivers/radio/Si446x/si446x_api_lib.c ****     Pro2Cmd[0] = SI446X_CMD_ID_GET_PROPERTY;
 1124              		.loc 1 382 5 is_stmt 1 view .LVU332
 1125              		.loc 1 382 16 is_stmt 0 view .LVU333
 1126 0002 174C     		ldr	r4, .L73
 1127 0004 1223     		movs	r3, #18
 1128 0006 2370     		strb	r3, [r4]
 383:Drivers/radio/Si446x/si446x_api_lib.c ****     Pro2Cmd[1] = GROUP;
 1129              		.loc 1 383 5 is_stmt 1 view .LVU334
 1130              		.loc 1 383 16 is_stmt 0 view .LVU335
 1131 0008 6070     		strb	r0, [r4, #1]
 384:Drivers/radio/Si446x/si446x_api_lib.c ****     Pro2Cmd[2] = NUM_PROPS;
 1132              		.loc 1 384 5 is_stmt 1 view .LVU336
 1133              		.loc 1 384 16 is_stmt 0 view .LVU337
 1134 000a A170     		strb	r1, [r4, #2]
 385:Drivers/radio/Si446x/si446x_api_lib.c ****     Pro2Cmd[3] = START_PROP;
 1135              		.loc 1 385 5 is_stmt 1 view .LVU338
 1136              		.loc 1 385 16 is_stmt 0 view .LVU339
 1137 000c E270     		strb	r2, [r4, #3]
 386:Drivers/radio/Si446x/si446x_api_lib.c **** 
 387:Drivers/radio/Si446x/si446x_api_lib.c ****     radio_comm_SendCmdGetResp( SI446X_CMD_ARG_COUNT_GET_PROPERTY,
 1138              		.loc 1 387 5 is_stmt 1 view .LVU340
 1139 000e 2346     		mov	r3, r4
 1140 0010 0A46     		mov	r2, r1
 1141              	.LVL80:
 1142              		.loc 1 387 5 is_stmt 0 view .LVU341
 1143 0012 2146     		mov	r1, r4
ARM GAS  C:\Users\andywei\AppData\Local\Temp\cc7mkTcv.s 			page 28


 1144              	.LVL81:
 1145              		.loc 1 387 5 view .LVU342
 1146 0014 0420     		movs	r0, #4
 1147              	.LVL82:
 1148              		.loc 1 387 5 view .LVU343
 1149 0016 FFF7FEFF 		bl	radio_comm_SendCmdGetResp
 1150              	.LVL83:
 388:Drivers/radio/Si446x/si446x_api_lib.c ****                               Pro2Cmd,
 389:Drivers/radio/Si446x/si446x_api_lib.c ****                               Pro2Cmd[2],
 390:Drivers/radio/Si446x/si446x_api_lib.c ****                               Pro2Cmd );
 391:Drivers/radio/Si446x/si446x_api_lib.c **** 
 392:Drivers/radio/Si446x/si446x_api_lib.c ****     Si446xCmd.GET_PROPERTY.DATA[0 ]   = Pro2Cmd[0];
 1151              		.loc 1 392 5 is_stmt 1 view .LVU344
 1152              		.loc 1 392 48 is_stmt 0 view .LVU345
 1153 001a 2278     		ldrb	r2, [r4]	@ zero_extendqisi2
 1154              		.loc 1 392 39 view .LVU346
 1155 001c 114B     		ldr	r3, .L73+4
 1156 001e 1A70     		strb	r2, [r3]
 393:Drivers/radio/Si446x/si446x_api_lib.c ****     Si446xCmd.GET_PROPERTY.DATA[1 ]   = Pro2Cmd[1];
 1157              		.loc 1 393 5 is_stmt 1 view .LVU347
 1158              		.loc 1 393 48 is_stmt 0 view .LVU348
 1159 0020 6278     		ldrb	r2, [r4, #1]	@ zero_extendqisi2
 1160              		.loc 1 393 39 view .LVU349
 1161 0022 5A70     		strb	r2, [r3, #1]
 394:Drivers/radio/Si446x/si446x_api_lib.c ****     Si446xCmd.GET_PROPERTY.DATA[2 ]   = Pro2Cmd[2];
 1162              		.loc 1 394 5 is_stmt 1 view .LVU350
 1163              		.loc 1 394 48 is_stmt 0 view .LVU351
 1164 0024 A278     		ldrb	r2, [r4, #2]	@ zero_extendqisi2
 1165              		.loc 1 394 39 view .LVU352
 1166 0026 9A70     		strb	r2, [r3, #2]
 395:Drivers/radio/Si446x/si446x_api_lib.c ****     Si446xCmd.GET_PROPERTY.DATA[3 ]   = Pro2Cmd[3];
 1167              		.loc 1 395 5 is_stmt 1 view .LVU353
 1168              		.loc 1 395 48 is_stmt 0 view .LVU354
 1169 0028 E278     		ldrb	r2, [r4, #3]	@ zero_extendqisi2
 1170              		.loc 1 395 39 view .LVU355
 1171 002a DA70     		strb	r2, [r3, #3]
 396:Drivers/radio/Si446x/si446x_api_lib.c ****     Si446xCmd.GET_PROPERTY.DATA[4 ]   = Pro2Cmd[4];
 1172              		.loc 1 396 5 is_stmt 1 view .LVU356
 1173              		.loc 1 396 48 is_stmt 0 view .LVU357
 1174 002c 2279     		ldrb	r2, [r4, #4]	@ zero_extendqisi2
 1175              		.loc 1 396 39 view .LVU358
 1176 002e 1A71     		strb	r2, [r3, #4]
 397:Drivers/radio/Si446x/si446x_api_lib.c ****     Si446xCmd.GET_PROPERTY.DATA[5 ]   = Pro2Cmd[5];
 1177              		.loc 1 397 5 is_stmt 1 view .LVU359
 1178              		.loc 1 397 48 is_stmt 0 view .LVU360
 1179 0030 6279     		ldrb	r2, [r4, #5]	@ zero_extendqisi2
 1180              		.loc 1 397 39 view .LVU361
 1181 0032 5A71     		strb	r2, [r3, #5]
 398:Drivers/radio/Si446x/si446x_api_lib.c ****     Si446xCmd.GET_PROPERTY.DATA[6 ]   = Pro2Cmd[6];
 1182              		.loc 1 398 5 is_stmt 1 view .LVU362
 1183              		.loc 1 398 48 is_stmt 0 view .LVU363
 1184 0034 A279     		ldrb	r2, [r4, #6]	@ zero_extendqisi2
 1185              		.loc 1 398 39 view .LVU364
 1186 0036 9A71     		strb	r2, [r3, #6]
 399:Drivers/radio/Si446x/si446x_api_lib.c ****     Si446xCmd.GET_PROPERTY.DATA[7 ]   = Pro2Cmd[7];
 1187              		.loc 1 399 5 is_stmt 1 view .LVU365
 1188              		.loc 1 399 48 is_stmt 0 view .LVU366
ARM GAS  C:\Users\andywei\AppData\Local\Temp\cc7mkTcv.s 			page 29


 1189 0038 E279     		ldrb	r2, [r4, #7]	@ zero_extendqisi2
 1190              		.loc 1 399 39 view .LVU367
 1191 003a DA71     		strb	r2, [r3, #7]
 400:Drivers/radio/Si446x/si446x_api_lib.c ****     Si446xCmd.GET_PROPERTY.DATA[8 ]   = Pro2Cmd[8];
 1192              		.loc 1 400 5 is_stmt 1 view .LVU368
 1193              		.loc 1 400 48 is_stmt 0 view .LVU369
 1194 003c 227A     		ldrb	r2, [r4, #8]	@ zero_extendqisi2
 1195              		.loc 1 400 39 view .LVU370
 1196 003e 1A72     		strb	r2, [r3, #8]
 401:Drivers/radio/Si446x/si446x_api_lib.c ****     Si446xCmd.GET_PROPERTY.DATA[9 ]   = Pro2Cmd[9];
 1197              		.loc 1 401 5 is_stmt 1 view .LVU371
 1198              		.loc 1 401 48 is_stmt 0 view .LVU372
 1199 0040 627A     		ldrb	r2, [r4, #9]	@ zero_extendqisi2
 1200              		.loc 1 401 39 view .LVU373
 1201 0042 5A72     		strb	r2, [r3, #9]
 402:Drivers/radio/Si446x/si446x_api_lib.c ****     Si446xCmd.GET_PROPERTY.DATA[10]   = Pro2Cmd[10];
 1202              		.loc 1 402 5 is_stmt 1 view .LVU374
 1203              		.loc 1 402 48 is_stmt 0 view .LVU375
 1204 0044 A27A     		ldrb	r2, [r4, #10]	@ zero_extendqisi2
 1205              		.loc 1 402 39 view .LVU376
 1206 0046 9A72     		strb	r2, [r3, #10]
 403:Drivers/radio/Si446x/si446x_api_lib.c ****     Si446xCmd.GET_PROPERTY.DATA[11]   = Pro2Cmd[11];
 1207              		.loc 1 403 5 is_stmt 1 view .LVU377
 1208              		.loc 1 403 48 is_stmt 0 view .LVU378
 1209 0048 E27A     		ldrb	r2, [r4, #11]	@ zero_extendqisi2
 1210              		.loc 1 403 39 view .LVU379
 1211 004a DA72     		strb	r2, [r3, #11]
 404:Drivers/radio/Si446x/si446x_api_lib.c ****     Si446xCmd.GET_PROPERTY.DATA[12]   = Pro2Cmd[12];
 1212              		.loc 1 404 5 is_stmt 1 view .LVU380
 1213              		.loc 1 404 48 is_stmt 0 view .LVU381
 1214 004c 227B     		ldrb	r2, [r4, #12]	@ zero_extendqisi2
 1215              		.loc 1 404 39 view .LVU382
 1216 004e 1A73     		strb	r2, [r3, #12]
 405:Drivers/radio/Si446x/si446x_api_lib.c ****     Si446xCmd.GET_PROPERTY.DATA[13]   = Pro2Cmd[13];
 1217              		.loc 1 405 5 is_stmt 1 view .LVU383
 1218              		.loc 1 405 48 is_stmt 0 view .LVU384
 1219 0050 627B     		ldrb	r2, [r4, #13]	@ zero_extendqisi2
 1220              		.loc 1 405 39 view .LVU385
 1221 0052 5A73     		strb	r2, [r3, #13]
 406:Drivers/radio/Si446x/si446x_api_lib.c ****     Si446xCmd.GET_PROPERTY.DATA[14]   = Pro2Cmd[14];
 1222              		.loc 1 406 5 is_stmt 1 view .LVU386
 1223              		.loc 1 406 48 is_stmt 0 view .LVU387
 1224 0054 A27B     		ldrb	r2, [r4, #14]	@ zero_extendqisi2
 1225              		.loc 1 406 39 view .LVU388
 1226 0056 9A73     		strb	r2, [r3, #14]
 407:Drivers/radio/Si446x/si446x_api_lib.c ****     Si446xCmd.GET_PROPERTY.DATA[15]   = Pro2Cmd[15];
 1227              		.loc 1 407 5 is_stmt 1 view .LVU389
 1228              		.loc 1 407 48 is_stmt 0 view .LVU390
 1229 0058 E27B     		ldrb	r2, [r4, #15]	@ zero_extendqisi2
 1230              		.loc 1 407 39 view .LVU391
 1231 005a DA73     		strb	r2, [r3, #15]
 408:Drivers/radio/Si446x/si446x_api_lib.c **** }
 1232              		.loc 1 408 1 view .LVU392
 1233 005c 10BD     		pop	{r4, pc}
 1234              	.L74:
 1235 005e 00BF     		.align	2
 1236              	.L73:
ARM GAS  C:\Users\andywei\AppData\Local\Temp\cc7mkTcv.s 			page 30


 1237 0060 00000000 		.word	.LANCHOR0
 1238 0064 00000000 		.word	.LANCHOR1
 1239              		.cfi_endproc
 1240              	.LFE150:
 1242              		.global	Si446xPatchCommands
 1243              		.global	Pro2Cmd
 1244              		.global	Si446xCmd
 1245              		.section	.bss.Pro2Cmd,"aw",%nobits
 1246              		.align	2
 1247              		.set	.LANCHOR0,. + 0
 1250              	Pro2Cmd:
 1251 0000 00000000 		.space	16
 1251      00000000 
 1251      00000000 
 1251      00000000 
 1252              		.section	.bss.Si446xCmd,"aw",%nobits
 1253              		.align	2
 1254              		.set	.LANCHOR1,. + 0
 1257              	Si446xCmd:
 1258 0000 00000000 		.space	16
 1258      00000000 
 1258      00000000 
 1258      00000000 
 1259              		.section	.data.Si446xPatchCommands,"aw"
 1260              		.align	2
 1263              	Si446xPatchCommands:
 1264 0000 08042171 		.ascii	"\010\004!qK\000\000\334"
 1264      4B0000DC 
 1265 0008 950805A6 		.ascii	"\225\010\005\246\"!\360A"
 1265      2221F041 
 1266 0010 5B2608E2 		.ascii	"[&\010\342/\034\273\012"
 1266      2F1CBB0A 
 1267 0018 A8942808 		.ascii	"\250\224(\010\005\207g\342"
 1267      058767E2 
 1268 0020 581A075B 		.ascii	"X\032\007[\010\341\320r"
 1268      08E1D072 
 1269 0028 D88AB85B 		.ascii	"\330\212\270[}\010\005\021"
 1269      7D080511 
 1270 0030 EC9E2823 		.ascii	"\354\236(#\033m\010\342"
 1270      1B6D08E2 
 1271 0038 4F8AB2A9 		.ascii	"O\212\262\251)\024\023\010"
 1271      29141308 
 1272 0040 05D12E71 		.ascii	"\005\321.qjQL,"
 1272      6A514C2C 
 1273 0048 08E58027 		.ascii	"\010\345\200'B\244i\260"
 1273      42A469B0 
 1274 0050 7F0805AA 		.ascii	"\177\010\005\252\201*\275E"
 1274      812ABD45 
 1275 0058 E8A808EA 		.ascii	"\350\250\010\352\344\360$\311"
 1275      E4F024C9 
 1276 0060 9FCC3C08 		.ascii	"\237\314<\010\005\010\365\005"
 1276      0508F505 
 1277 0068 04276298 		.ascii	"\004'b\230\010\352kb"
 1277      08EA6B62 
 1278 0070 84A1F94A 		.ascii	"\204\241\371J\342\010\005\351"
 1278      E20805E9 
 1279 0078 77054F84 		.ascii	"w\005O\204\3565\010\342"
ARM GAS  C:\Users\andywei\AppData\Local\Temp\cc7mkTcv.s 			page 31


 1279      EE3508E2 
 1280 0080 43C38DFB 		.ascii	"C\303\215\373\255T%\010"
 1280      AD542508 
 1281 0088 0514065E 		.ascii	"\005\024\006^96/E"
 1281      39362F45 
 1282 0090 08EA0C1C 		.ascii	"\010\352\014\034t\320\021\374"
 1282      74D011FC 
 1283 0098 320805DA 		.ascii	"2\010\005\3328\272\016<"
 1283      38BA0E3C 
 1284 00a0 E78B08EA 		.ascii	"\347\213\010\352\260\011\346\377"
 1284      B009E6FF 
 1285 00a8 94BBA908 		.ascii	"\224\273\251\010\005\327\021)"
 1285      05D71129 
 1286 00b0 FEDC71D5 		.ascii	"\376\334q\325\010\352\177\203"
 1286      08EA7F83 
 1287 00b8 A7609062 		.ascii	"\247`\220b\030\010\005\204"
 1287      18080584 
 1288 00c0 7F6AD191 		.ascii	"\177j\321\221\306R\010\352"
 1288      C65208EA 
 1289 00c8 2AD87B8E 		.ascii	"*\330{\216J\237\221\010"
 1289      4A9F9108 
 1290 00d0 05BDAA9D 		.ascii	"\005\275\252\235\026\030\006\025"
 1290      16180615 
 1291 00d8 08E255AD 		.ascii	"\010\342U\255-\012\024\037"
 1291      2D0A141F 
 1292 00e0 5D0805D3 		.ascii	"]\010\005\323\340|9\317"
 1292      E07C39CF 
 1293 00e8 01F008EF 		.ascii	"\001\360\010\357:\221rj"
 1293      3A91726A 
 1294 00f0 03BB9608 		.ascii	"\003\273\226\010\347\203m\244"
 1294      E7836DA4 
 1295 00f8 92FC13A7 		.ascii	"\222\374\023\247\010\357\370\375"
 1295      08EFF8FD 
 1296 0100 CF62076F 		.ascii	"\317b\007o\036\010\347L"
 1296      1E08E74C 
 1297 0108 EA4A754F 		.ascii	"\352JuO\326\317\010\342"
 1297      D6CF08E2 
 1298 0110 F611E426 		.ascii	"\366\021\344&\015M\306\010"
 1298      0D4DC608 
 1299 0118 05FBBFE8 		.ascii	"\005\373\277\350\007\211\303Q"
 1299      0789C351 
 1300 0120 08EF8227 		.ascii	"\010\357\202'\004?\226\250"
 1300      043F96A8 
 1301 0128 5808E741 		.ascii	"X\010\347A)<u*"
 1301      293C752A 
 1302 0130 031C08EF 		.ascii	"\003\034\010\357\257Y\2306"
 1302      AF599836 
 1303 0138 AA0F0608 		.ascii	"\252\017\006\010\346\366\223A"
 1303      E6F69341 
 1304 0140 2DEC0E99 		.ascii	"-\354\016\231\010\005)\031"
 1304      08052919 
 1305 0148 90E5AA36 		.ascii	"\220\345\2526@\010\347\373"
 1305      4008E7FB 
 1306 0150 68107D77 		.ascii	"h\020}w]\300\010\347"
 1306      5DC008E7 
 1307 0158 CBB4DDCE 		.ascii	"\313\264\335\316\220T\276\010"
 1307      9054BE08 
ARM GAS  C:\Users\andywei\AppData\Local\Temp\cc7mkTcv.s 			page 32


 1308 0160 E7728AD6 		.ascii	"\347r\212\326\002\364\335\314"
 1308      02F4DDCC 
 1309 0168 08E76A21 		.ascii	"\010\347j!\013\002\206\354"
 1309      0B0286EC 
 1310 0170 1508E77B 		.ascii	"\025\010\347{|=k\201"
 1310      7C3D6B81 
 1311 0178 03D008EF 		.ascii	"\003\320\010\357}a6\224"
 1311      7D613694 
 1312 0180 7CA0DF08 		.ascii	"|\240\337\010\357\314\205;"
 1312      EFCC853B 
 1313 0188 DAE05C1C 		.ascii	"\332\340\\\034\010\347\343u"
 1313      08E7E375 
 1314 0190 BB39224B 		.ascii	"\2739\"K\250\010\357\371"
 1314      A808EFF9 
 1315 0198 CEE05EEB 		.ascii	"\316\340^\353\035\313\010\347"
 1315      1DCB08E7 
 1316 01a0 BDE270D5 		.ascii	"\275\342p\325\253N?\010"
 1316      AB4E3F08 
 1317 01a8 E7B78D20 		.ascii	"\347\267\215 hk\011R"
 1317      686B0952 
 1318 01b0 08EFA11B 		.ascii	"\010\357\241\033\220\315\230\000"
 1318      90CD9800 
 1319 01b8 6308EF54 		.ascii	"c\010\357Tg]\234\021"
 1319      675D9C11 
 1320 01c0 FC4508E7 		.ascii	"\374E\010\347\324\233\310\227"
 1320      D49BC897 
 1321 01c8 BE8A0708 		.ascii	"\276\212\007\010\357R\215\220"
 1321      EF528D90 
 1322 01d0 6373D52A 		.ascii	"cs\325*\010\357\003\274"
 1322      08EF03BC 
 1323 01d8 6E1C76BE 		.ascii	"n\034v\276J\010\347\302"
 1323      4A08E7C2 
 1324 01e0 ED67BA5E 		.ascii	"\355g\272^f!\010\357"
 1324      662108EF 
 1325 01e8 E73F87BE 		.ascii	"\347?\207\276\340zm\010"
 1325      E07A6D08 
 1326 01f0 E7C97093 		.ascii	"\347\311p\223\035d\365l"
 1326      1D64F56C 
 1327 01f8 08EFF528 		.ascii	"\010\357\365(\0104\263\266"
 1327      0834B3B6 
 1328 0200 2C08EF3A 		.ascii	",\010\357:\012\354\017\333"
 1328      0AEC0FDB 
 1329 0208 56CA08EF 		.ascii	"V\312\010\3579\240n\355"
 1329      39A06EED 
 1330 0210 79D02408 		.ascii	"y\320$\010\347l\013\257"
 1330      E76C0BAF 
 1331 0218 A94E40B5 		.ascii	"\251N@\265\010\351\271\257"
 1331      08E9B9AF 
 1332 0220 BF2550D1 		.ascii	"\277%P\3217\010\005\236"
 1332      3708059E 
 1333 0228 DBDE3F94 		.ascii	"\333\336?\224\351k\010\354"
 1333      E96B08EC 
 1334 0230 C505AA57 		.ascii	"\305\005\252W\334\212^\010"
 1334      DC8A5E08 
 1335 0238 0570DA84 		.ascii	"\005p\332\204\204\335\312\220"
 1335      84DDCA90 
 1336              		.text
ARM GAS  C:\Users\andywei\AppData\Local\Temp\cc7mkTcv.s 			page 33


 1337              	.Letext0:
 1338              		.file 2 "c:\\program files (x86)\\gnu arm embedded toolchain\\10 2020-q4-major\\arm-none-eabi\\inc
 1339              		.file 3 "c:\\program files (x86)\\gnu arm embedded toolchain\\10 2020-q4-major\\arm-none-eabi\\inc
 1340              		.file 4 "c:\\program files (x86)\\gnu arm embedded toolchain\\10 2020-q4-major\\lib\\gcc\\arm-none
 1341              		.file 5 "c:\\program files (x86)\\gnu arm embedded toolchain\\10 2020-q4-major\\arm-none-eabi\\inc
 1342              		.file 6 "Inc/bsp.h"
 1343              		.file 7 "Drivers/radio/Si446x/si446x_cmd.h"
 1344              		.file 8 "Drivers/radio/Si446x/si446x_api_lib.h"
 1345              		.file 9 "Drivers/radio/radio_comm.h"
 1346              		.file 10 "Drivers/radio/radio_hal.h"
 1347              		.file 11 "<built-in>"
ARM GAS  C:\Users\andywei\AppData\Local\Temp\cc7mkTcv.s 			page 34

